

Microchip MPLAB XC8 Assembler V2.36 build 20220127204148 
                                                                                               Fri Feb 10 14:09:01 2023

Microchip MPLAB XC8 C Compiler v2.36 (Free license) build 20220127204148 Og1 
     1                           	processor	18F87K22
     2                           	fnconf	rparam,??,?,0
     3                           	pagewidth 120
     4                           	opt	flic
     5                           	psect	idataCOMRAM,global,class=CODE,delta=1,noexec
     6                           	psect	smallconst,global,reloc=2,class=SMALLCONST,delta=1,noexec
     7                           	psect	cinit,global,reloc=2,class=CODE,delta=1
     8                           	psect	bssCOMRAM,global,class=COMRAM,space=1,delta=1,lowdata,noexec
     9                           	psect	dataCOMRAM,global,class=COMRAM,space=1,delta=1,lowdata,noexec
    10                           	psect	cstackCOMRAM,global,class=COMRAM,space=1,delta=1,lowdata,noexec
    11                           	psect	text0,global,reloc=2,class=CODE,delta=1
    12                           	psect	text1,global,reloc=2,class=CODE,delta=1
    13                           	psect	text2,global,reloc=2,class=CODE,delta=1
    14                           	psect	text3,global,reloc=2,class=CODE,delta=1
    15                           	psect	text4,global,reloc=2,class=CODE,delta=1
    16                           	psect	text5,global,reloc=2,class=CODE,delta=1
    17                           	psect	text6,global,reloc=2,class=CODE,delta=1
    18                           	psect	text7,global,reloc=2,class=CODE,delta=1
    19                           	psect	text8,global,reloc=2,class=CODE,delta=1
    20                           	psect	text9,global,reloc=2,class=CODE,delta=1
    21                           	psect	text10,global,reloc=2,class=CODE,delta=1
    22                           	psect	text11,global,reloc=2,class=CODE,delta=1
    23                           	psect	text12,global,reloc=2,class=CODE,delta=1
    24                           	psect	text13,global,reloc=2,class=CODE,delta=1
    25                           	psect	text14,global,reloc=2,class=CODE,delta=1
    26                           	psect	text15,global,reloc=2,class=CODE,delta=1
    27                           	psect	text16,global,reloc=2,class=CODE,delta=1
    28                           	psect	text17,global,reloc=2,class=CODE,delta=1
    29                           	psect	text18,global,reloc=2,class=CODE,delta=1
    30                           	psect	text19,global,reloc=2,class=CODE,delta=1
    31                           	psect	text20,global,reloc=2,class=CODE,delta=1
    32                           	psect	text21,global,reloc=2,class=CODE,delta=1
    33                           	psect	intsave_regs,global,class=BIGRAM,space=1,delta=1,noexec
    34                           	psect	rparam,global,class=COMRAM,space=1,delta=1,noexec
    35                           	psect	idloc,global,abs,ovrld,class=IDLOC,space=5,delta=1,noexec
    36                           	psect	config,global,abs,ovrld,class=CONFIG,space=4,delta=1,noexec
    37  0000                     
    38                           ; Version 2.36
    39                           ; Generated 28/01/2022 GMT
    40                           ; 
    41                           ; Copyright © 2022, Microchip Technology Inc. and its subsidiaries ("Microchip")
    42                           ; All rights reserved.
    43                           ; 
    44                           ; This software is developed by Microchip Technology Inc. and its subsidiaries ("Microch
      +                          ip").
    45                           ; 
    46                           ; Redistribution and use in source and binary forms, with or without modification, are
    47                           ; permitted provided that the following conditions are met:
    48                           ; 
    49                           ;     1. Redistributions of source code must retain the above copyright notice, this lis
      +                          t of
    50                           ;        conditions and the following disclaimer.
    51                           ; 
    52                           ;     2. Redistributions in binary form must reproduce the above copyright notice, this 
      +                          list
    53                           ;        of conditions and the following disclaimer in the documentation and/or other
    54                           ;        materials provided with the distribution. Publication is not required when
    55                           ;        this file is used in an embedded application.
    56                           ; 
    57                           ;     3. Microchip's name may not be used to endorse or promote products derived from th
      +                          is
    58                           ;        software without specific prior written permission.
    59                           ; 
    60                           ; THIS SOFTWARE IS PROVIDED BY MICROCHIP "AS IS" AND ANY EXPRESS OR IMPLIED WARRANTIES,
    61                           ; INCLUDING, BUT NOT LIMITED TO, THE IMPLIED WARRANTIES OF MERCHANTABILITY AND FITNESS F
      +                          OR
    62                           ; PURPOSE ARE DISCLAIMED.  IN NO EVENT SHALL MICROCHIP BE LIABLE FOR ANY DIRECT, INDIREC
      +                          T,
    63                           ; INCIDENTAL, SPECIAL, EXEMPLARY, OR CONSEQUENTIAL DAMAGES (INCLUDING BUT NOT LIMITED TO
    64                           ; PROCUREMENT OF SUBSTITUTE GOODS OR SERVICES; LOSS OF USE, DATA OR PROFITS; OR BUSINESS
    65                           ; INTERRUPTION) HOWSOEVER CAUSED AND ON ANY THEORY OF LIABILITY, WHETHER IN CONTRACT, ST
      +                          RICT
    66                           ; LIABILITY, OR TORT (INCLUDING NEGLIGENCE OR OTHERWISE) ARISING IN ANY WAY OUT OF THE U
      +                          SE OF
    67                           ; THIS SOFTWARE, EVEN IF ADVISED OF THE POSSIBILITY OF SUCH DAMAGE.
    68                           ; 
    69                           ; 
    70                           ; Code-generator required, PIC18F87K22 Definitions
    71                           ; 
    72                           ; SFR Addresses
    73  0000                     
    74                           	psect	idataCOMRAM
    75  001952                     __pidataCOMRAM:
    76                           	callstack 0
    77                           
    78                           ;initializer for _u8Alarme
    79  001952  01                 	db	1
    80  0000                     _SSP2CON1bits	set	3943
    81  0000                     _SSP1CON2bits	set	4037
    82  0000                     _SSP1CON1bits	set	4038
    83  0000                     _LATJ	set	3985
    84  0000                     _ANCON2	set	3875
    85  0000                     _ANCON1	set	3876
    86  0000                     _ANCON0	set	3877
    87  0000                     _MEMCON	set	3878
    88  0000                     _PORTH	set	3975
    89  0000                     _LATH	set	3984
    90  0000                     _TRISCbits	set	3988
    91  0000                     _TRISAbits	set	3986
    92  0000                     _LATJbits	set	3985
    93  0000                     _TRISH	set	3993
    94  0000                     _PIR1bits	set	3998
    95  0000                     _SSP1CON2	set	4037
    96  0000                     _SSP1CON1	set	4038
    97  0000                     _SSP1STAT	set	4039
    98  0000                     _TRISJ	set	3994
    99  0000                     _LATAbits	set	3977
   100  0000                     _LATCbits	set	3979
   101  0000                     _LATFbits	set	3982
   102  0000                     _LATGbits	set	3983
   103  0000                     _INTCON2bits	set	4081
   104  0000                     _SSP1BUF	set	4041
   105  0000                     _SSP1ADD	set	4040
   106  0000                     _PIR2bits	set	4001
   107  0000                     _PADCFG1bits	set	3923
   108  0000                     _TRISFbits	set	3991
   109  0000                     _TRISDbits	set	3989
   110  0000                     _TRISGbits	set	3992
   111  0000                     _SSP2CON1	set	3943
   112  0000                     _SSP2STAT	set	3944
   113  0000                     _PORTDbits	set	3971
   114  0000                     _SSP2BUF	set	3946
   115  0000                     _PORTCbits	set	3970
   116                           
   117                           	psect	smallconst
   118  001000                     __psmallconst:
   119                           	callstack 0
   120  001000  00                 	db	0
   121  001001                     STR_4:
   122  001001  20                 	db	32
   123  001002  20                 	db	32
   124  001003  20                 	db	32
   125  001004  20                 	db	32
   126  001005  20                 	db	32
   127  001006  20                 	db	32
   128  001007  20                 	db	32
   129  001008  20                 	db	32
   130  001009  20                 	db	32
   131  00100A  20                 	db	32
   132  00100B  20                 	db	32
   133  00100C  20                 	db	32
   134  00100D  20                 	db	32
   135  00100E  20                 	db	32
   136  00100F  20                 	db	32
   137  001010  20                 	db	32
   138  001011  20                 	db	32
   139  001012  20                 	db	32
   140  001013  20                 	db	32
   141  001014  20                 	db	32
   142  001015  20                 	db	32
   143  001016  20                 	db	32
   144  001017  20                 	db	32
   145  001018  20                 	db	32
   146  001019  20                 	db	32
   147  00101A  20                 	db	32
   148  00101B  20                 	db	32
   149  00101C  20                 	db	32
   150  00101D  20                 	db	32
   151  00101E  20                 	db	32
   152  00101F  20                 	db	32
   153  001020  20                 	db	32
   154  001021  20                 	db	32
   155  001022  20                 	db	32
   156  001023  20                 	db	32
   157  001024  20                 	db	32
   158  001025  20                 	db	32
   159  001026  20                 	db	32
   160  001027  20                 	db	32
   161  001028  20                 	db	32
   162  001029  20                 	db	32
   163  00102A  20                 	db	32
   164  00102B  20                 	db	32
   165  00102C  20                 	db	32
   166  00102D  20                 	db	32
   167  00102E  20                 	db	32
   168  00102F  20                 	db	32
   169  001030  20                 	db	32
   170  001031  20                 	db	32
   171  001032  20                 	db	32
   172  001033  20                 	db	32
   173  001034  20                 	db	32
   174  001035  00                 	db	0
   175  001036                     STR_3:
   176  001036  41                 	db	65	;'A'
   177  001037  4C                 	db	76	;'L'
   178  001038  41                 	db	65	;'A'
   179  001039  52                 	db	82	;'R'
   180  00103A  4D                 	db	77	;'M'
   181  00103B  45                 	db	69	;'E'
   182  00103C  20                 	db	32
   183  00103D  21                 	db	33
   184  00103E  20                 	db	32
   185  00103F  28                 	db	40
   186  001040  50                 	db	80	;'P'
   187  001041  61                 	db	97	;'a'
   188  001042  73                 	db	115	;'s'
   189  001043  73                 	db	115	;'s'
   190  001044  61                 	db	97	;'a'
   191  001045  67                 	db	103	;'g'
   192  001046  65                 	db	101	;'e'
   193  001047  20                 	db	32
   194  001048  61                 	db	97	;'a'
   195  001049  75                 	db	117	;'u'
   196  00104A  20                 	db	32
   197  00104B  64                 	db	100	;'d'
   198  00104C  65                 	db	101	;'e'
   199  00104D  73                 	db	115	;'s'
   200  00104E  73                 	db	115	;'s'
   201  00104F  75                 	db	117	;'u'
   202  001050  73                 	db	115	;'s'
   203  001051  20                 	db	32
   204  001052  64                 	db	100	;'d'
   205  001053  65                 	db	101	;'e'
   206  001054  20                 	db	32
   207  001055  31                 	db	49	;'1'
   208  001056  32                 	db	50	;'2'
   209  001057  36                 	db	54	;'6'
   210  001058  29                 	db	41
   211  001059  00                 	db	0
   212  00105A                     STR_1:
   213  00105A  48                 	db	72	;'H'
   214  00105B  65                 	db	101	;'e'
   215  00105C  6C                 	db	108	;'l'
   216  00105D  6C                 	db	108	;'l'
   217  00105E  6F                 	db	111	;'o'
   218  00105F  00                 	db	0
   219  001060  00                 	db	0	; dummy byte at the end
   220  0000                     
   221                           ; #config settings
   222                           
   223                           	psect	cinit
   224  0018A2                     __pcinit:
   225                           	callstack 0
   226  0018A2                     start_initialization:
   227                           	callstack 0
   228  0018A2                     __initialization:
   229                           	callstack 0
   230                           
   231                           ; Initialize objects allocated to COMRAM (1 bytes)
   232                           ; load TBLPTR registers with __pidataCOMRAM
   233  0018A2  0E52               	movlw	low __pidataCOMRAM
   234  0018A4  6EF6               	movwf	tblptrl,c
   235  0018A6  0E19               	movlw	high __pidataCOMRAM
   236  0018A8  6EF7               	movwf	tblptrh,c
   237  0018AA  0E00               	movlw	low (__pidataCOMRAM shr (0+16))
   238  0018AC  6EF8               	movwf	tblptru,c
   239  0018AE  0009               	tblrd		*+	;fetch initializer
   240  0018B0  CFF5 F017          	movff	tablat,__pdataCOMRAM
   241                           
   242                           ; Clear objects allocated to COMRAM (8 bytes)
   243  0018B4  EE00  F00F         	lfsr	0,__pbssCOMRAM
   244  0018B8  0E08               	movlw	8
   245  0018BA                     clear_0:
   246  0018BA  6AEE               	clrf	postinc0,c
   247  0018BC  06E8               	decf	wreg,f,c
   248  0018BE  E1FD               	bnz	clear_0
   249  0018C0                     end_of_initialization:
   250                           	callstack 0
   251  0018C0                     __end_of__initialization:
   252                           	callstack 0
   253  0018C0  0100               	movlb	0
   254  0018C2  EF31  F008         	goto	_main	;jump to C main() function
   255                           
   256                           	psect	bssCOMRAM
   257  00000F                     __pbssCOMRAM:
   258                           	callstack 0
   259  00000F                     	ds	3
   260  000012                     Read_bit_OneWire@value:
   261                           	callstack 0
   262  000012                     	ds	1
   263  000013                     _u8DataFromI2C:
   264                           	callstack 0
   265  000013                     	ds	1
   266  000014                     _u8EventCounter:
   267                           	callstack 0
   268  000014                     	ds	3
   269                           
   270                           	psect	dataCOMRAM
   271  000017                     __pdataCOMRAM:
   272                           	callstack 0
   273  000017                     _u8Alarme:
   274                           	callstack 0
   275  000017                     	ds	1
   276                           
   277                           	psect	cstackCOMRAM
   278  000001                     __pcstackCOMRAM:
   279                           	callstack 0
   280  000001                     write_d_aff@data:
   281                           	callstack 0
   282  000001                     write_c_aff@command:
   283                           	callstack 0
   284  000001                     check_status_ok@res:
   285                           	callstack 0
   286  000001                     delai_us_char@ucdelai:
   287                           	callstack 0
   288  000001                     I2C_Write_Register@u8Register:
   289                           	callstack 0
   290  000001                     I2C_Read_Register@u8Register:
   291                           	callstack 0
   292  000001                     I2C_Read_Registers@u8FirstRegister:
   293                           	callstack 0
   294                           
   295                           ; 1 bytes @ 0x0
   296  000001                     	ds	1
   297  000002                     wait_status_ok@err:
   298                           	callstack 0
   299  000002                     I2C_Write_Register@u8Value:
   300                           	callstack 0
   301  000002                     I2C_Read_Register@u8Value:
   302                           	callstack 0
   303  000002                     I2C_Read_Registers@u8NbRegister:
   304                           	callstack 0
   305                           
   306                           ; 1 bytes @ 0x1
   307  000002                     	ds	1
   308  000003                     wait_status_ok@status:
   309                           	callstack 0
   310  000003                     I2C_Write_Register@u8Address:
   311                           	callstack 0
   312  000003                     I2C_Read_Register@u8Address:
   313                           	callstack 0
   314  000003                     I2C_Read_Registers@pu8Values:
   315                           	callstack 0
   316                           
   317                           ; 2 bytes @ 0x2
   318  000003                     	ds	1
   319  000004                     wait_status_ok@res:
   320                           	callstack 0
   321                           
   322                           ; 1 bytes @ 0x3
   323  000004                     	ds	1
   324  000005                     command@cmd:
   325                           	callstack 0
   326  000005                     d1command@cmd:
   327                           	callstack 0
   328  000005                     d2command@d2:
   329                           	callstack 0
   330  000005                     I2C_Read_Registers@u8Address:
   331                           	callstack 0
   332                           
   333                           ; 1 bytes @ 0x4
   334  000005                     	ds	1
   335  000006                     d1command@d1:
   336                           	callstack 0
   337  000006                     d2command@cmd:
   338                           	callstack 0
   339  000006                     I2C_Read_Registers@u8Cpt:
   340                           	callstack 0
   341                           
   342                           ; 1 bytes @ 0x5
   343  000006                     	ds	1
   344  000007                     d1command@res:
   345                           	callstack 0
   346  000007                     d2command@d1:
   347                           	callstack 0
   348                           
   349                           ; 1 bytes @ 0x6
   350  000007                     	ds	1
   351  000008                     d2command@res:
   352                           	callstack 0
   353  000008                     draw_hex8@octet:
   354                           	callstack 0
   355  000008                     draw_string@tableau:
   356                           	callstack 0
   357                           
   358                           ; 2 bytes @ 0x7
   359  000008                     	ds	1
   360  000009                     initialisation_afficheur@error_count:
   361                           	callstack 0
   362  000009                     draw_hex8@c:
   363                           	callstack 0
   364  000009                     goto_lico@colonne:
   365                           	callstack 0
   366  000009                     clear_text@add:
   367                           	callstack 0
   368  000009                     clear_graphics@add:
   369                           	callstack 0
   370                           
   371                           ; 2 bytes @ 0x8
   372  000009                     	ds	1
   373  00000A                     ??_goto_lico:
   374                           
   375                           ; 1 bytes @ 0x9
   376  00000A                     	ds	2
   377  00000C                     goto_lico@ligne:
   378                           	callstack 0
   379                           
   380                           ; 1 bytes @ 0xB
   381  00000C                     	ds	1
   382  00000D                     goto_lico@adr:
   383                           	callstack 0
   384                           
   385                           ; 2 bytes @ 0xC
   386  00000D                     	ds	2
   387  00000F                     
   388                           ; 1 bytes @ 0xE
   389 ;;
   390 ;;Main: autosize = 0, tempsize = 0, incstack = 0, save=0
   391 ;;
   392 ;; *************** function _main *****************
   393 ;; Defined at:
   394 ;;		line 69 in file "main.c"
   395 ;; Parameters:    Size  Location     Type
   396 ;;		None
   397 ;; Auto vars:     Size  Location     Type
   398 ;;		None
   399 ;; Return value:  Size  Location     Type
   400 ;;                  1    wreg      void 
   401 ;; Registers used:
   402 ;;		wreg, fsr2l, fsr2h, status,2, status,0, tblptrl, tblptrh, tblptru, prodl, prodh, cstack
   403 ;; Tracked objects:
   404 ;;		On entry : 0/0
   405 ;;		On exit  : 0/0
   406 ;;		Unchanged: 0/0
   407 ;; Data sizes:     COMRAM   BANK0   BANK1   BANK2   BANK3   BANK4   BANK5   BANK6   BANK7   BANK8   BANK9  BANK10  BANK1
      +1  BANK12  BANK13  BANK14  BANK15
   408 ;;      Params:         0       0       0       0       0       0       0       0       0       0       0       0       
      +0       0       0       0       0
   409 ;;      Locals:         0       0       0       0       0       0       0       0       0       0       0       0       
      +0       0       0       0       0
   410 ;;      Temps:          0       0       0       0       0       0       0       0       0       0       0       0       
      +0       0       0       0       0
   411 ;;      Totals:         0       0       0       0       0       0       0       0       0       0       0       0       
      +0       0       0       0       0
   412 ;;Total ram usage:        0 bytes
   413 ;; Hardware stack levels required when called: 4
   414 ;; This function calls:
   415 ;;		_EEP_SPI_Initialize
   416 ;;		_I2C_Initialize
   417 ;;		_I2C_Read_Register
   418 ;;		_I2C_Read_Registers
   419 ;;		_I2C_Write_Register
   420 ;;		_SPI_Initialize
   421 ;;		_clear_graphics
   422 ;;		_clear_text
   423 ;;		_draw_hex8
   424 ;;		_draw_string
   425 ;;		_goto_lico
   426 ;;		_initialisation_afficheur
   427 ;;		_initialisation_des_ports
   428 ;; This function is called by:
   429 ;;		Startup code after reset
   430 ;; This function uses a non-reentrant model
   431 ;;
   432                           
   433                           	psect	text0
   434  001062                     __ptext0:
   435                           	callstack 0
   436  001062                     _main:
   437                           	callstack 27
   438  001062                     
   439                           ;main.c: 71:     initialisation_des_ports();
   440  001062  EC20  F00C         	call	_initialisation_des_ports	;wreg free
   441  001066                     
   442                           ;main.c: 72:     initialisation_afficheur();
   443  001066  EC64  F009         	call	_initialisation_afficheur	;wreg free
   444  00106A                     
   445                           ;main.c: 74:     SPI_Initialize();
   446  00106A  EC9D  F00C         	call	_SPI_Initialize	;wreg free
   447  00106E                     
   448                           ;main.c: 75:     EEP_SPI_Initialize();
   449  00106E  ECA8  F00C         	call	_EEP_SPI_Initialize	;wreg free
   450  001072                     
   451                           ;main.c: 77:     I2C_Initialize();
   452  001072  EC75  F00C         	call	_I2C_Initialize	;wreg free
   453  001076                     
   454                           ;main.c: 79:     clear_text();
   455  001076  ECE6  F00B         	call	_clear_text	;wreg free
   456  00107A                     
   457                           ;main.c: 80:     clear_graphics();
   458  00107A  EC03  F00C         	call	_clear_graphics	;wreg free
   459  00107E                     
   460                           ;main.c: 82:     goto_lico(0,0);
   461  00107E  0E00               	movlw	0
   462  001080  6E09               	movwf	goto_lico@colonne^0,c
   463  001082  0E00               	movlw	0
   464  001084  ECC9  F00A         	call	_goto_lico
   465  001088                     
   466                           ;main.c: 83:     draw_string((unsigned char *)"Hello");
   467  001088  0E5A               	movlw	low STR_1
   468  00108A  6E08               	movwf	draw_string@tableau^0,c
   469  00108C  0E10               	movlw	high STR_1
   470  00108E  6E09               	movwf	(draw_string@tableau+1)^0,c
   471  001090  EC77  F00B         	call	_draw_string	;wreg free
   472  001094                     
   473                           ;main.c: 85:     I2C_Write_Register(0xA0,0x00,0x20);
   474  001094  0E00               	movlw	0
   475  001096  6E01               	movwf	I2C_Write_Register@u8Register^0,c
   476  001098  0E20               	movlw	32
   477  00109A  6E02               	movwf	I2C_Write_Register@u8Value^0,c
   478  00109C  0EA0               	movlw	160
   479  00109E  EC82  F00A         	call	_I2C_Write_Register
   480  0010A2                     
   481                           ;main.c: 86:     I2C_Read_Registers(0xA0, 0x01, 3, u8EventCounter);
   482  0010A2  0E01               	movlw	1
   483  0010A4  6E01               	movwf	I2C_Read_Registers@u8FirstRegister^0,c
   484  0010A6  0E03               	movlw	3
   485  0010A8  6E02               	movwf	I2C_Read_Registers@u8NbRegister^0,c
   486  0010AA  0E14               	movlw	low _u8EventCounter
   487  0010AC  6E03               	movwf	I2C_Read_Registers@pu8Values^0,c
   488  0010AE  0E00               	movlw	high _u8EventCounter
   489  0010B0  6E04               	movwf	(I2C_Read_Registers@pu8Values+1)^0,c
   490  0010B2  0EA0               	movlw	160
   491  0010B4  ECD3  F008         	call	_I2C_Read_Registers
   492  0010B8                     l2014:
   493  0010B8  0E00               	movlw	0
   494  0010BA  6E09               	movwf	goto_lico@colonne^0,c
   495  0010BC  0E00               	movlw	0
   496  0010BE  ECC9  F00A         	call	_goto_lico
   497  0010C2                     
   498                           ;main.c: 90:         draw_string((unsigned char *)"Hello");
   499  0010C2  0E5A               	movlw	low STR_1
   500  0010C4  6E08               	movwf	draw_string@tableau^0,c
   501  0010C6  0E10               	movlw	high STR_1
   502  0010C8  6E09               	movwf	(draw_string@tableau+1)^0,c
   503  0010CA  EC77  F00B         	call	_draw_string	;wreg free
   504  0010CE                     
   505                           ;main.c: 92:         I2C_Read_Registers(0xA0, 0x01, 3, u8EventCounter);
   506  0010CE  0E01               	movlw	1
   507  0010D0  6E01               	movwf	I2C_Read_Registers@u8FirstRegister^0,c
   508  0010D2  0E03               	movlw	3
   509  0010D4  6E02               	movwf	I2C_Read_Registers@u8NbRegister^0,c
   510  0010D6  0E14               	movlw	low _u8EventCounter
   511  0010D8  6E03               	movwf	I2C_Read_Registers@pu8Values^0,c
   512  0010DA  0E00               	movlw	high _u8EventCounter
   513  0010DC  6E04               	movwf	(I2C_Read_Registers@pu8Values+1)^0,c
   514  0010DE  0EA0               	movlw	160
   515  0010E0  ECD3  F008         	call	_I2C_Read_Registers
   516  0010E4                     
   517                           ;main.c: 94:         goto_lico(2,0);
   518  0010E4  0E00               	movlw	0
   519  0010E6  6E09               	movwf	goto_lico@colonne^0,c
   520  0010E8  0E02               	movlw	2
   521  0010EA  ECC9  F00A         	call	_goto_lico
   522  0010EE                     
   523                           ;main.c: 95:         draw_hex8(u8EventCounter[2]);
   524  0010EE  5016               	movf	(_u8EventCounter+2)^0,w,c
   525  0010F0  EC3A  F00A         	call	_draw_hex8
   526  0010F4                     
   527                           ;main.c: 96:         goto_lico(2,2);
   528  0010F4  0E02               	movlw	2
   529  0010F6  6E09               	movwf	goto_lico@colonne^0,c
   530  0010F8  0E02               	movlw	2
   531  0010FA  ECC9  F00A         	call	_goto_lico
   532  0010FE                     
   533                           ;main.c: 97:         draw_hex8(u8EventCounter[1]);
   534  0010FE  5015               	movf	(_u8EventCounter+1)^0,w,c
   535  001100  EC3A  F00A         	call	_draw_hex8
   536  001104                     
   537                           ;main.c: 98:         goto_lico(2,4);
   538  001104  0E04               	movlw	4
   539  001106  6E09               	movwf	goto_lico@colonne^0,c
   540  001108  0E02               	movlw	2
   541  00110A  ECC9  F00A         	call	_goto_lico
   542  00110E                     
   543                           ;main.c: 99:         draw_hex8(u8EventCounter[0]);
   544  00110E  5014               	movf	_u8EventCounter^0,w,c
   545  001110  EC3A  F00A         	call	_draw_hex8
   546  001114                     
   547                           ;main.c: 102:         if(!PORTDbits.RD3){
   548  001114  B683               	btfsc	131,3,c	;volatile
   549  001116  EF8F  F008         	goto	u1321
   550  00111A  EF91  F008         	goto	u1320
   551  00111E                     u1321:
   552  00111E  EFAD  F008         	goto	l2036
   553  001122                     u1320:
   554  001122                     
   555                           ;main.c: 103:             I2C_Write_Register(0xA0,0x01,0);
   556  001122  0E01               	movlw	1
   557  001124  6E01               	movwf	I2C_Write_Register@u8Register^0,c
   558  001126  0E00               	movlw	0
   559  001128  6E02               	movwf	I2C_Write_Register@u8Value^0,c
   560  00112A  0EA0               	movlw	160
   561  00112C  EC82  F00A         	call	_I2C_Write_Register
   562                           
   563                           ;main.c: 104:             I2C_Write_Register(0xA0,0x02,0);
   564  001130  0E02               	movlw	2
   565  001132  6E01               	movwf	I2C_Write_Register@u8Register^0,c
   566  001134  0E00               	movlw	0
   567  001136  6E02               	movwf	I2C_Write_Register@u8Value^0,c
   568  001138  0EA0               	movlw	160
   569  00113A  EC82  F00A         	call	_I2C_Write_Register
   570                           
   571                           ;main.c: 105:             I2C_Write_Register(0xA0,0x03,0);
   572  00113E  0E03               	movlw	3
   573  001140  6E01               	movwf	I2C_Write_Register@u8Register^0,c
   574  001142  0E00               	movlw	0
   575  001144  6E02               	movwf	I2C_Write_Register@u8Value^0,c
   576  001146  0EA0               	movlw	160
   577  001148  EC82  F00A         	call	_I2C_Write_Register
   578  00114C                     l383:
   579  00114C  A683               	btfss	131,3,c	;volatile
   580  00114E  EFAB  F008         	goto	u1331
   581  001152  EFAD  F008         	goto	u1330
   582  001156                     u1331:
   583  001156  EFA6  F008         	goto	l383
   584  00115A                     u1330:
   585  00115A                     l2036:
   586                           
   587                           ;main.c: 111:         u8DataFromI2C = I2C_Read_Register(0xA0, 0x02);
   588  00115A  0E02               	movlw	2
   589  00115C  6E01               	movwf	I2C_Read_Register@u8Register^0,c
   590  00115E  0EA0               	movlw	160
   591  001160  ECD5  F009         	call	_I2C_Read_Register
   592  001164  6E13               	movwf	_u8DataFromI2C^0,c
   593  001166                     
   594                           ;main.c: 113:         if(u8DataFromI2C >= u8Alarme){
   595  001166  5013               	movf	_u8DataFromI2C^0,w,c
   596  001168  B4D8               	btfsc	status,2,c
   597  00116A  EFB9  F008         	goto	u1341
   598  00116E  EFBB  F008         	goto	u1340
   599  001172                     u1341:
   600  001172  EFC9  F008         	goto	l2046
   601  001176                     u1340:
   602  001176                     
   603                           ;main.c: 114:             goto_lico(3,0);
   604  001176  0E00               	movlw	0
   605  001178  6E09               	movwf	goto_lico@colonne^0,c
   606  00117A  0E03               	movlw	3
   607  00117C  ECC9  F00A         	call	_goto_lico
   608  001180                     
   609                           ;main.c: 115:             draw_string("ALARME ! (Passage au dessus de 126)");
   610  001180  0E36               	movlw	low STR_3
   611  001182  6E08               	movwf	draw_string@tableau^0,c
   612  001184  0E10               	movlw	high STR_3
   613  001186  6E09               	movwf	(draw_string@tableau+1)^0,c
   614  001188  EC77  F00B         	call	_draw_string	;wreg free
   615  00118C                     
   616                           ;main.c: 117:          LATAbits.LATA5 = 1;
   617  00118C  8A89               	bsf	137,5,c	;volatile
   618                           
   619                           ;main.c: 118:         }
   620  00118E  EF5C  F008         	goto	l2014
   621  001192                     l2046:
   622                           
   623                           ;main.c: 120:             draw_string("                                                 
      +                             ");
   624  001192  0E01               	movlw	low STR_4
   625  001194  6E08               	movwf	draw_string@tableau^0,c
   626  001196  0E10               	movlw	high STR_4
   627  001198  6E09               	movwf	(draw_string@tableau+1)^0,c
   628  00119A  EC77  F00B         	call	_draw_string	;wreg free
   629  00119E  EF5C  F008         	goto	l2014
   630  0011A2  EF00  F000         	goto	start
   631  0011A6                     __end_of_main:
   632                           	callstack 0
   633                           
   634 ;; *************** function _initialisation_des_ports *****************
   635 ;; Defined at:
   636 ;;		line 27 in file "main.c"
   637 ;; Parameters:    Size  Location     Type
   638 ;;		None
   639 ;; Auto vars:     Size  Location     Type
   640 ;;		None
   641 ;; Return value:  Size  Location     Type
   642 ;;                  1    wreg      void 
   643 ;; Registers used:
   644 ;;		wreg, status,2
   645 ;; Tracked objects:
   646 ;;		On entry : 0/0
   647 ;;		On exit  : 0/0
   648 ;;		Unchanged: 0/0
   649 ;; Data sizes:     COMRAM   BANK0   BANK1   BANK2   BANK3   BANK4   BANK5   BANK6   BANK7   BANK8   BANK9  BANK10  BANK1
      +1  BANK12  BANK13  BANK14  BANK15
   650 ;;      Params:         0       0       0       0       0       0       0       0       0       0       0       0       
      +0       0       0       0       0
   651 ;;      Locals:         0       0       0       0       0       0       0       0       0       0       0       0       
      +0       0       0       0       0
   652 ;;      Temps:          0       0       0       0       0       0       0       0       0       0       0       0       
      +0       0       0       0       0
   653 ;;      Totals:         0       0       0       0       0       0       0       0       0       0       0       0       
      +0       0       0       0       0
   654 ;;Total ram usage:        0 bytes
   655 ;; Hardware stack levels used: 1
   656 ;; This function calls:
   657 ;;		Nothing
   658 ;; This function is called by:
   659 ;;		_main
   660 ;; This function uses a non-reentrant model
   661 ;;
   662                           
   663                           	psect	text1
   664  001840                     __ptext1:
   665                           	callstack 0
   666  001840                     _initialisation_des_ports:
   667                           	callstack 30
   668  001840                     
   669                           ;main.c: 30:     MEMCON=0xA0;
   670  001840  0EA0               	movlw	160
   671  001842  010F               	movlb	15	; () banked
   672  001844  6F26               	movwf	38,b	;volatile
   673                           
   674                           ;main.c: 33:     ANCON0=0x03;
   675  001846  0E03               	movlw	3
   676  001848  6F25               	movwf	37,b	;volatile
   677                           
   678                           ;main.c: 34:     ANCON1=0x08;
   679  00184A  0E08               	movlw	8
   680  00184C  6F24               	movwf	36,b	;volatile
   681                           
   682                           ;main.c: 35:     ANCON2=0x00;
   683  00184E  0E00               	movlw	0
   684  001850  6F23               	movwf	35,b	;volatile
   685  001852                     
   686                           ; BSR set to: 15
   687                           ;main.c: 39:     LATCbits.LATC2=0;
   688  001852  948B               	bcf	139,2,c	;volatile
   689  001854                     
   690                           ; BSR set to: 15
   691                           ;main.c: 40:     LATCbits.LATC1=0;
   692  001854  928B               	bcf	139,1,c	;volatile
   693  001856                     
   694                           ; BSR set to: 15
   695                           ;main.c: 41:     LATGbits.LATG0=0;
   696  001856  908F               	bcf	143,0,c	;volatile
   697  001858                     
   698                           ; BSR set to: 15
   699                           ;main.c: 44:     TRISAbits.TRISA2=0;
   700  001858  9492               	bcf	146,2,c	;volatile
   701  00185A                     
   702                           ; BSR set to: 15
   703                           ;main.c: 45:     TRISAbits.TRISA3=0;
   704  00185A  9692               	bcf	146,3,c	;volatile
   705  00185C                     
   706                           ; BSR set to: 15
   707                           ;main.c: 46:     TRISAbits.TRISA4=0;
   708  00185C  9892               	bcf	146,4,c	;volatile
   709  00185E                     
   710                           ; BSR set to: 15
   711                           ;main.c: 47:     TRISAbits.TRISA5=0;
   712  00185E  9A92               	bcf	146,5,c	;volatile
   713  001860                     
   714                           ; BSR set to: 15
   715                           ;main.c: 48:     TRISCbits.TRISC2=0;
   716  001860  9494               	bcf	148,2,c	;volatile
   717  001862                     
   718                           ; BSR set to: 15
   719                           ;main.c: 49:     TRISCbits.TRISC1=0;
   720  001862  9294               	bcf	148,1,c	;volatile
   721  001864                     
   722                           ; BSR set to: 15
   723                           ;main.c: 50:     TRISGbits.TRISG0=0;
   724  001864  9098               	bcf	152,0,c	;volatile
   725  001866                     
   726                           ; BSR set to: 15
   727                           ;main.c: 51:     TRISCbits.TRISC3=1;
   728  001866  8694               	bsf	148,3,c	;volatile
   729  001868                     
   730                           ; BSR set to: 15
   731                           ;main.c: 52:     TRISCbits.TRISC4=1;
   732  001868  8894               	bsf	148,4,c	;volatile
   733  00186A                     
   734                           ; BSR set to: 15
   735                           ;main.c: 54:     TRISDbits.TRISD3=1;
   736  00186A  8695               	bsf	149,3,c	;volatile
   737  00186C                     
   738                           ; BSR set to: 15
   739                           ;main.c: 56:     LATAbits.LATA5 = 0;
   740  00186C  9A89               	bcf	137,5,c	;volatile
   741  00186E                     
   742                           ; BSR set to: 15
   743                           ;main.c: 59:     INTCON2bits.RBPU=0;
   744  00186E  9EF1               	bcf	241,7,c	;volatile
   745  001870                     
   746                           ; BSR set to: 15
   747                           ;main.c: 60:     PADCFG1bits.REPU=1;
   748  001870  8D53               	bsf	83,6,b	;volatile
   749  001872                     
   750                           ; BSR set to: 15
   751  001872  0012               	return		;funcret
   752  001874                     __end_of_initialisation_des_ports:
   753                           	callstack 0
   754                           
   755 ;; *************** function _initialisation_afficheur *****************
   756 ;; Defined at:
   757 ;;		line 215 in file "afficheur.c"
   758 ;; Parameters:    Size  Location     Type
   759 ;;		None
   760 ;; Auto vars:     Size  Location     Type
   761 ;;  error_count     1    8[COMRAM] unsigned char 
   762 ;; Return value:  Size  Location     Type
   763 ;;                  1    wreg      void 
   764 ;; Registers used:
   765 ;;		wreg, status,2, status,0, cstack
   766 ;; Tracked objects:
   767 ;;		On entry : 0/0
   768 ;;		On exit  : 0/0
   769 ;;		Unchanged: 0/0
   770 ;; Data sizes:     COMRAM   BANK0   BANK1   BANK2   BANK3   BANK4   BANK5   BANK6   BANK7   BANK8   BANK9  BANK10  BANK1
      +1  BANK12  BANK13  BANK14  BANK15
   771 ;;      Params:         0       0       0       0       0       0       0       0       0       0       0       0       
      +0       0       0       0       0
   772 ;;      Locals:         1       0       0       0       0       0       0       0       0       0       0       0       
      +0       0       0       0       0
   773 ;;      Temps:          0       0       0       0       0       0       0       0       0       0       0       0       
      +0       0       0       0       0
   774 ;;      Totals:         1       0       0       0       0       0       0       0       0       0       0       0       
      +0       0       0       0       0
   775 ;;Total ram usage:        1 bytes
   776 ;; Hardware stack levels used: 1
   777 ;; Hardware stack levels required when called: 3
   778 ;; This function calls:
   779 ;;		_check_status_ok
   780 ;;		_command
   781 ;;		_d1command
   782 ;;		_d2command
   783 ;;		_delai_us_char
   784 ;; This function is called by:
   785 ;;		_main
   786 ;; This function uses a non-reentrant model
   787 ;;
   788                           
   789                           	psect	text2
   790  0012C8                     __ptext2:
   791                           	callstack 0
   792  0012C8                     _initialisation_afficheur:
   793                           	callstack 27
   794  0012C8                     
   795                           ;afficheur.c: 217:     unsigned char error_count;;afficheur.c: 219:     error_count=0;
   796  0012C8  0E00               	movlw	0
   797  0012CA  6E09               	movwf	initialisation_afficheur@error_count^0,c
   798                           
   799                           ;afficheur.c: 222:     LATH=0;
   800  0012CC  0E00               	movlw	0
   801  0012CE  6E90               	movwf	144,c	;volatile
   802                           
   803                           ;afficheur.c: 223:     LATJ=0x1F;
   804  0012D0  0E1F               	movlw	31
   805  0012D2  6E91               	movwf	145,c	;volatile
   806                           
   807                           ;afficheur.c: 226:     TRISH=0;
   808  0012D4  0E00               	movlw	0
   809  0012D6  6E99               	movwf	153,c	;volatile
   810                           
   811                           ;afficheur.c: 227:     TRISJ=0;
   812  0012D8  0E00               	movlw	0
   813  0012DA  6E9A               	movwf	154,c	;volatile
   814  0012DC                     
   815                           ;afficheur.c: 230:     LATJbits.LATJ5=0;
   816  0012DC  9A91               	bcf	145,5,c	;volatile
   817  0012DE                     
   818                           ;afficheur.c: 231:     LATJbits.LATJ6=1;
   819  0012DE  8C91               	bsf	145,6,c	;volatile
   820  0012E0                     
   821                           ;afficheur.c: 234:     LATJbits.LATJ4=0;
   822  0012E0  9891               	bcf	145,4,c	;volatile
   823  0012E2                     
   824                           ;afficheur.c: 235:     delai_us_char(4);
   825  0012E2  0E04               	movlw	4
   826  0012E4  EC3A  F00C         	call	_delai_us_char
   827  0012E8                     
   828                           ;afficheur.c: 236:     LATJbits.LATJ4=1;
   829  0012E8  8891               	bsf	145,4,c	;volatile
   830  0012EA                     
   831                           ;afficheur.c: 240:     delai_us_char(12);
   832  0012EA  0E0C               	movlw	12
   833  0012EC  EC3A  F00C         	call	_delai_us_char
   834                           
   835                           ;afficheur.c: 241:     while(check_status_ok()==00)
   836  0012F0  EF8B  F009         	goto	l1792
   837  0012F4                     l1782:
   838                           
   839                           ;afficheur.c: 242:     {;afficheur.c: 243:         error_count++;
   840  0012F4  2A09               	incf	initialisation_afficheur@error_count^0,f,c
   841  0012F6                     
   842                           ;afficheur.c: 244:         delai_us_char(12);
   843  0012F6  0E0C               	movlw	12
   844  0012F8  EC3A  F00C         	call	_delai_us_char
   845  0012FC                     
   846                           ;afficheur.c: 245:         if (error_count>200)
   847  0012FC  0EC8               	movlw	200
   848  0012FE  6409               	cpfsgt	initialisation_afficheur@error_count^0,c
   849  001300  EF84  F009         	goto	u811
   850  001304  EF86  F009         	goto	u810
   851  001308                     u811:
   852  001308  EF8B  F009         	goto	l1792
   853  00130C                     u810:
   854  00130C                     
   855                           ;afficheur.c: 246:         {;afficheur.c: 247:             LATCbits.LATC1=1;LATGbits.LAT
      +                          G0=1;LATCbits.LATC2=0;
   856  00130C  828B               	bsf	139,1,c	;volatile
   857  00130E  808F               	bsf	143,0,c	;volatile
   858  001310  948B               	bcf	139,2,c	;volatile
   859  001312                     
   860                           ;afficheur.c: 250:             error_count=0;
   861  001312  0E00               	movlw	0
   862  001314  6E09               	movwf	initialisation_afficheur@error_count^0,c
   863  001316                     l1792:
   864                           
   865                           ;afficheur.c: 241:     while(check_status_ok()==00)
   866  001316  ECC9  F00B         	call	_check_status_ok	;wreg free
   867  00131A  0900               	iorlw	0
   868  00131C  B4D8               	btfsc	status,2,c
   869  00131E  EF93  F009         	goto	u821
   870  001322  EF95  F009         	goto	u820
   871  001326                     u821:
   872  001326  EF7A  F009         	goto	l1782
   873  00132A                     u820:
   874  00132A                     
   875                           ;afficheur.c: 255:     d2command(39,15,0x21);
   876  00132A  0E0F               	movlw	15
   877  00132C  6E05               	movwf	d2command@d2^0,c
   878  00132E  0E21               	movlw	33
   879  001330  6E06               	movwf	d2command@cmd^0,c
   880  001332  0E27               	movlw	39
   881  001334  EC40  F00B         	call	_d2command
   882                           
   883                           ;afficheur.c: 256:     d2command(0,0,0x22);
   884  001338  0E00               	movlw	0
   885  00133A  6E05               	movwf	d2command@d2^0,c
   886  00133C  0E22               	movlw	34
   887  00133E  6E06               	movwf	d2command@cmd^0,c
   888  001340  0E00               	movlw	0
   889  001342  EC40  F00B         	call	_d2command
   890                           
   891                           ;afficheur.c: 257:     d2command(0,0,0x24);
   892  001346  0E00               	movlw	0
   893  001348  6E05               	movwf	d2command@d2^0,c
   894  00134A  0E24               	movlw	36
   895  00134C  6E06               	movwf	d2command@cmd^0,c
   896  00134E  0E00               	movlw	0
   897  001350  EC40  F00B         	call	_d2command
   898                           
   899                           ;afficheur.c: 260:     d2command(0,0x7B,0x40);
   900  001354  0E7B               	movlw	123
   901  001356  6E05               	movwf	d2command@d2^0,c
   902  001358  0E40               	movlw	64
   903  00135A  6E06               	movwf	d2command@cmd^0,c
   904  00135C  0E00               	movlw	0
   905  00135E  EC40  F00B         	call	_d2command
   906                           
   907                           ;afficheur.c: 261:     d2command(40,0,0x41);
   908  001362  0E00               	movlw	0
   909  001364  6E05               	movwf	d2command@d2^0,c
   910  001366  0E41               	movlw	65
   911  001368  6E06               	movwf	d2command@cmd^0,c
   912  00136A  0E28               	movlw	40
   913  00136C  EC40  F00B         	call	_d2command
   914                           
   915                           ;afficheur.c: 262:     d2command(0x00,0x80,0x42);
   916  001370  0E80               	movlw	128
   917  001372  6E05               	movwf	d2command@d2^0,c
   918  001374  0E42               	movlw	66
   919  001376  6E06               	movwf	d2command@cmd^0,c
   920  001378  0E00               	movlw	0
   921  00137A  EC40  F00B         	call	_d2command
   922                           
   923                           ;afficheur.c: 263:     d2command(40,0,0x43);
   924  00137E  0E00               	movlw	0
   925  001380  6E05               	movwf	d2command@d2^0,c
   926  001382  0E43               	movlw	67
   927  001384  6E06               	movwf	d2command@cmd^0,c
   928  001386  0E28               	movlw	40
   929  001388  EC40  F00B         	call	_d2command
   930                           
   931                           ;afficheur.c: 266:     command(0x80);
   932  00138C  0E80               	movlw	128
   933  00138E  EC63  F00C         	call	_command
   934                           
   935                           ;afficheur.c: 269:     command(0x9C);
   936  001392  0E9C               	movlw	156
   937  001394  EC63  F00C         	call	_command
   938                           
   939                           ;afficheur.c: 272:     command(0xA0);
   940  001398  0EA0               	movlw	160
   941  00139A  EC63  F00C         	call	_command
   942                           
   943                           ;afficheur.c: 275:     d1command(0x02,0x70);
   944  00139E  0E70               	movlw	112
   945  0013A0  6E05               	movwf	d1command@cmd^0,c
   946  0013A2  0E02               	movlw	2
   947  0013A4  ECA2  F00B         	call	_d1command
   948  0013A8  0012               	return		;funcret
   949  0013AA                     __end_of_initialisation_afficheur:
   950                           	callstack 0
   951                           
   952 ;; *************** function _command *****************
   953 ;; Defined at:
   954 ;;		line 121 in file "afficheur.c"
   955 ;; Parameters:    Size  Location     Type
   956 ;;  cmd             1    wreg     unsigned char 
   957 ;; Auto vars:     Size  Location     Type
   958 ;;  cmd             1    4[COMRAM] unsigned char 
   959 ;;  res             1    0        unsigned char 
   960 ;; Return value:  Size  Location     Type
   961 ;;                  1    wreg      unsigned char 
   962 ;; Registers used:
   963 ;;		wreg, status,2, status,0, cstack
   964 ;; Tracked objects:
   965 ;;		On entry : 0/0
   966 ;;		On exit  : 0/0
   967 ;;		Unchanged: 0/0
   968 ;; Data sizes:     COMRAM   BANK0   BANK1   BANK2   BANK3   BANK4   BANK5   BANK6   BANK7   BANK8   BANK9  BANK10  BANK1
      +1  BANK12  BANK13  BANK14  BANK15
   969 ;;      Params:         0       0       0       0       0       0       0       0       0       0       0       0       
      +0       0       0       0       0
   970 ;;      Locals:         1       0       0       0       0       0       0       0       0       0       0       0       
      +0       0       0       0       0
   971 ;;      Temps:          0       0       0       0       0       0       0       0       0       0       0       0       
      +0       0       0       0       0
   972 ;;      Totals:         1       0       0       0       0       0       0       0       0       0       0       0       
      +0       0       0       0       0
   973 ;;Total ram usage:        1 bytes
   974 ;; Hardware stack levels used: 1
   975 ;; Hardware stack levels required when called: 2
   976 ;; This function calls:
   977 ;;		_delai_us_char
   978 ;;		_wait_status_ok
   979 ;;		_write_c_aff
   980 ;; This function is called by:
   981 ;;		_initialisation_afficheur
   982 ;;		_plot1
   983 ;;		_plot0
   984 ;; This function uses a non-reentrant model
   985 ;;
   986                           
   987                           	psect	text3
   988  0018C6                     __ptext3:
   989                           	callstack 0
   990  0018C6                     _command:
   991                           	callstack 27
   992                           
   993                           ;incstack = 0
   994                           ;command@cmd stored from wreg
   995  0018C6  6E05               	movwf	command@cmd^0,c
   996  0018C8                     
   997                           ;afficheur.c: 127:     if(wait_status_ok()==1)
   998  0018C8  EC05  F00B         	call	_wait_status_ok	;wreg free
   999  0018CC  06E8               	decf	wreg,f,c
  1000  0018CE  A4D8               	btfss	status,2,c
  1001  0018D0  EF6C  F00C         	goto	u61
  1002  0018D4  EF6E  F00C         	goto	u60
  1003  0018D8                     u61:
  1004  0018D8  EF74  F00C         	goto	l44
  1005  0018DC                     u60:
  1006  0018DC                     
  1007                           ;afficheur.c: 128:     {;afficheur.c: 129:         delai_us_char(12);
  1008  0018DC  0E0C               	movlw	12
  1009  0018DE  EC3A  F00C         	call	_delai_us_char
  1010  0018E2                     
  1011                           ;afficheur.c: 130:         write_c_aff(cmd);
  1012  0018E2  5005               	movf	command@cmd^0,w,c
  1013  0018E4  EC90  F00C         	call	_write_c_aff
  1014  0018E8                     l44:
  1015  0018E8  0012               	return		;funcret
  1016  0018EA                     __end_of_command:
  1017                           	callstack 0
  1018                           
  1019 ;; *************** function _check_status_ok *****************
  1020 ;; Defined at:
  1021 ;;		line 59 in file "afficheur.c"
  1022 ;; Parameters:    Size  Location     Type
  1023 ;;		None
  1024 ;; Auto vars:     Size  Location     Type
  1025 ;;  res             1    0[COMRAM] unsigned char 
  1026 ;; Return value:  Size  Location     Type
  1027 ;;                  1    wreg      unsigned char 
  1028 ;; Registers used:
  1029 ;;		wreg, status,2, status,0
  1030 ;; Tracked objects:
  1031 ;;		On entry : 0/0
  1032 ;;		On exit  : 0/0
  1033 ;;		Unchanged: 0/0
  1034 ;; Data sizes:     COMRAM   BANK0   BANK1   BANK2   BANK3   BANK4   BANK5   BANK6   BANK7   BANK8   BANK9  BANK10  BANK1
      +1  BANK12  BANK13  BANK14  BANK15
  1035 ;;      Params:         0       0       0       0       0       0       0       0       0       0       0       0       
      +0       0       0       0       0
  1036 ;;      Locals:         1       0       0       0       0       0       0       0       0       0       0       0       
      +0       0       0       0       0
  1037 ;;      Temps:          0       0       0       0       0       0       0       0       0       0       0       0       
      +0       0       0       0       0
  1038 ;;      Totals:         1       0       0       0       0       0       0       0       0       0       0       0       
      +0       0       0       0       0
  1039 ;;Total ram usage:        1 bytes
  1040 ;; Hardware stack levels used: 1
  1041 ;; This function calls:
  1042 ;;		Nothing
  1043 ;; This function is called by:
  1044 ;;		_initialisation_afficheur
  1045 ;; This function uses a non-reentrant model
  1046 ;;
  1047                           
  1048                           	psect	text4
  1049  001792                     __ptext4:
  1050                           	callstack 0
  1051  001792                     _check_status_ok:
  1052                           	callstack 29
  1053  001792                     
  1054                           ;afficheur.c: 60:     unsigned char res;;afficheur.c: 63:     TRISH=0xFF;
  1055  001792  6899               	setf	153,c	;volatile
  1056                           
  1057                           ;afficheur.c: 64:     LATJbits.LATJ0=1;
  1058  001794  8091               	bsf	145,0,c	;volatile
  1059                           
  1060                           ;afficheur.c: 65:     LATJbits.LATJ3=0;
  1061  001796  9691               	bcf	145,3,c	;volatile
  1062                           
  1063                           ;afficheur.c: 66:     LATJbits.LATJ1=0;
  1064  001798  9291               	bcf	145,1,c	;volatile
  1065                           
  1066                           ;afficheur.c: 67:     __nop();
  1067  00179A  F000               	nop	
  1068                           
  1069                           ;afficheur.c: 68:     __nop();
  1070  00179C  F000               	nop	
  1071                           
  1072                           ;afficheur.c: 69:     __nop();
  1073  00179E  F000               	nop	
  1074                           
  1075                           ;afficheur.c: 70:     res=PORTH;
  1076  0017A0  CF87 F001          	movff	3975,check_status_ok@res	;volatile
  1077                           
  1078                           ;afficheur.c: 71:     LATJbits.LATJ1=1;
  1079  0017A4  8291               	bsf	145,1,c	;volatile
  1080                           
  1081                           ;afficheur.c: 72:     LATJbits.LATJ3=1;
  1082  0017A6  8691               	bsf	145,3,c	;volatile
  1083  0017A8                     
  1084                           ;afficheur.c: 74:     if ((res&0x03)==0x03)
  1085  0017A8  5001               	movf	check_status_ok@res^0,w,c
  1086  0017AA  0B03               	andlw	3
  1087  0017AC  0A03               	xorlw	3
  1088  0017AE  A4D8               	btfss	status,2,c
  1089  0017B0  EFDC  F00B         	goto	u51
  1090  0017B4  EFDE  F00B         	goto	u50
  1091  0017B8                     u51:
  1092  0017B8  EFE2  F00B         	goto	l1208
  1093  0017BC                     u50:
  1094  0017BC                     
  1095                           ;afficheur.c: 75:         res=1;
  1096  0017BC  0E01               	movlw	1
  1097  0017BE  6E01               	movwf	check_status_ok@res^0,c
  1098  0017C0  EFE4  F00B         	goto	l30
  1099  0017C4                     l1208:
  1100                           
  1101                           ;afficheur.c: 77:         res=0;
  1102  0017C4  0E00               	movlw	0
  1103  0017C6  6E01               	movwf	check_status_ok@res^0,c
  1104  0017C8                     l30:
  1105                           
  1106                           ;afficheur.c: 78:     return res;
  1107  0017C8  5001               	movf	check_status_ok@res^0,w,c
  1108  0017CA  0012               	return		;funcret
  1109  0017CC                     __end_of_check_status_ok:
  1110                           	callstack 0
  1111                           
  1112 ;; *************** function _goto_lico *****************
  1113 ;; Defined at:
  1114 ;;		line 342 in file "afficheur.c"
  1115 ;; Parameters:    Size  Location     Type
  1116 ;;  ligne           1    wreg     unsigned char 
  1117 ;;  colonne         1    8[COMRAM] unsigned char 
  1118 ;; Auto vars:     Size  Location     Type
  1119 ;;  ligne           1   11[COMRAM] unsigned char 
  1120 ;;  adr             2   12[COMRAM] unsigned int 
  1121 ;; Return value:  Size  Location     Type
  1122 ;;                  1    wreg      void 
  1123 ;; Registers used:
  1124 ;;		wreg, status,2, status,0, prodl, prodh, cstack
  1125 ;; Tracked objects:
  1126 ;;		On entry : 0/0
  1127 ;;		On exit  : 0/0
  1128 ;;		Unchanged: 0/0
  1129 ;; Data sizes:     COMRAM   BANK0   BANK1   BANK2   BANK3   BANK4   BANK5   BANK6   BANK7   BANK8   BANK9  BANK10  BANK1
      +1  BANK12  BANK13  BANK14  BANK15
  1130 ;;      Params:         1       0       0       0       0       0       0       0       0       0       0       0       
      +0       0       0       0       0
  1131 ;;      Locals:         3       0       0       0       0       0       0       0       0       0       0       0       
      +0       0       0       0       0
  1132 ;;      Temps:          2       0       0       0       0       0       0       0       0       0       0       0       
      +0       0       0       0       0
  1133 ;;      Totals:         6       0       0       0       0       0       0       0       0       0       0       0       
      +0       0       0       0       0
  1134 ;;Total ram usage:        6 bytes
  1135 ;; Hardware stack levels used: 1
  1136 ;; Hardware stack levels required when called: 3
  1137 ;; This function calls:
  1138 ;;		_d2command
  1139 ;; This function is called by:
  1140 ;;		_main
  1141 ;; This function uses a non-reentrant model
  1142 ;;
  1143                           
  1144                           	psect	text5
  1145  001592                     __ptext5:
  1146                           	callstack 0
  1147  001592                     _goto_lico:
  1148                           	callstack 27
  1149                           
  1150                           ;incstack = 0
  1151                           ;goto_lico@ligne stored from wreg
  1152  001592  6E0C               	movwf	goto_lico@ligne^0,c
  1153  001594                     
  1154                           ;afficheur.c: 343:     unsigned int adr;;afficheur.c: 345:     adr=0x7B00;
  1155  001594  0E7B               	movlw	123
  1156  001596  6E0E               	movwf	(goto_lico@adr+1)^0,c
  1157  001598  0E00               	movlw	0
  1158  00159A  6E0D               	movwf	goto_lico@adr^0,c
  1159  00159C                     
  1160                           ;afficheur.c: 346:     if (ligne>15) ligne=0;
  1161  00159C  0E0F               	movlw	15
  1162  00159E  640C               	cpfsgt	goto_lico@ligne^0,c
  1163  0015A0  EFD4  F00A         	goto	u891
  1164  0015A4  EFD6  F00A         	goto	u890
  1165  0015A8                     u891:
  1166  0015A8  EFD8  F00A         	goto	l1826
  1167  0015AC                     u890:
  1168  0015AC  0E00               	movlw	0
  1169  0015AE  6E0C               	movwf	goto_lico@ligne^0,c
  1170  0015B0                     l1826:
  1171                           
  1172                           ;afficheur.c: 347:     if (colonne>39) colonne=0;
  1173  0015B0  0E27               	movlw	39
  1174  0015B2  6409               	cpfsgt	goto_lico@colonne^0,c
  1175  0015B4  EFDE  F00A         	goto	u901
  1176  0015B8  EFE0  F00A         	goto	u900
  1177  0015BC                     u901:
  1178  0015BC  EFE2  F00A         	goto	l1830
  1179  0015C0                     u900:
  1180  0015C0  0E00               	movlw	0
  1181  0015C2  6E09               	movwf	goto_lico@colonne^0,c
  1182  0015C4                     l1830:
  1183                           
  1184                           ;afficheur.c: 348:     adr=adr+40*ligne+colonne;
  1185  0015C4  500C               	movf	goto_lico@ligne^0,w,c
  1186  0015C6  0D28               	mullw	40
  1187  0015C8  CFF3 F00A          	movff	prodl,??_goto_lico
  1188  0015CC  CFF4 F00B          	movff	prodh,??_goto_lico+1
  1189  0015D0  5009               	movf	goto_lico@colonne^0,w,c
  1190  0015D2  260A               	addwf	??_goto_lico^0,f,c
  1191  0015D4  0E00               	movlw	0
  1192  0015D6  220B               	addwfc	(??_goto_lico+1)^0,f,c
  1193  0015D8  500D               	movf	goto_lico@adr^0,w,c
  1194  0015DA  240A               	addwf	??_goto_lico^0,w,c
  1195  0015DC  6E0D               	movwf	goto_lico@adr^0,c
  1196  0015DE  500E               	movf	(goto_lico@adr+1)^0,w,c
  1197  0015E0  200B               	addwfc	(??_goto_lico+1)^0,w,c
  1198  0015E2  6E0E               	movwf	(goto_lico@adr+1)^0,c
  1199                           
  1200                           ;afficheur.c: 349:     while(d2command((unsigned char)(adr&0x00FF),(unsigned char)(adr>>
      +                          8),0x24)==0)
  1201  0015E4  EFF5  F00A         	goto	l1832
  1202  0015E8                     l104:
  1203                           
  1204                           ;afficheur.c: 350:         __nop();
  1205  0015E8  F000               	nop	
  1206  0015EA                     l1832:
  1207                           
  1208                           ;afficheur.c: 349:     while(d2command((unsigned char)(adr&0x00FF),(unsigned char)(adr>>
      +                          8),0x24)==0)
  1209  0015EA  500E               	movf	(goto_lico@adr+1)^0,w,c
  1210  0015EC  6E05               	movwf	d2command@d2^0,c
  1211  0015EE  0E24               	movlw	36
  1212  0015F0  6E06               	movwf	d2command@cmd^0,c
  1213  0015F2  500D               	movf	goto_lico@adr^0,w,c
  1214  0015F4  EC40  F00B         	call	_d2command
  1215  0015F8  0900               	iorlw	0
  1216  0015FA  B4D8               	btfsc	status,2,c
  1217  0015FC  EF02  F00B         	goto	u911
  1218  001600  EF04  F00B         	goto	u910
  1219  001604                     u911:
  1220  001604  EFF4  F00A         	goto	l104
  1221  001608                     u910:
  1222  001608  0012               	return		;funcret
  1223  00160A                     __end_of_goto_lico:
  1224                           	callstack 0
  1225                           
  1226 ;; *************** function _draw_string *****************
  1227 ;; Defined at:
  1228 ;;		line 301 in file "afficheur.c"
  1229 ;; Parameters:    Size  Location     Type
  1230 ;;  tableau         2    7[COMRAM] PTR unsigned char 
  1231 ;;		 -> STR_4(53), STR_3(36), STR_2(6), STR_1(6), 
  1232 ;; Auto vars:     Size  Location     Type
  1233 ;;		None
  1234 ;; Return value:  Size  Location     Type
  1235 ;;                  1    wreg      void 
  1236 ;; Registers used:
  1237 ;;		wreg, status,2, status,0, tblptrl, tblptrh, tblptru, cstack
  1238 ;; Tracked objects:
  1239 ;;		On entry : 0/0
  1240 ;;		On exit  : 0/0
  1241 ;;		Unchanged: 0/0
  1242 ;; Data sizes:     COMRAM   BANK0   BANK1   BANK2   BANK3   BANK4   BANK5   BANK6   BANK7   BANK8   BANK9  BANK10  BANK1
      +1  BANK12  BANK13  BANK14  BANK15
  1243 ;;      Params:         2       0       0       0       0       0       0       0       0       0       0       0       
      +0       0       0       0       0
  1244 ;;      Locals:         0       0       0       0       0       0       0       0       0       0       0       0       
      +0       0       0       0       0
  1245 ;;      Temps:          0       0       0       0       0       0       0       0       0       0       0       0       
      +0       0       0       0       0
  1246 ;;      Totals:         2       0       0       0       0       0       0       0       0       0       0       0       
      +0       0       0       0       0
  1247 ;;Total ram usage:        2 bytes
  1248 ;; Hardware stack levels used: 1
  1249 ;; Hardware stack levels required when called: 3
  1250 ;; This function calls:
  1251 ;;		_d1command
  1252 ;; This function is called by:
  1253 ;;		_main
  1254 ;; This function uses a non-reentrant model
  1255 ;;
  1256                           
  1257                           	psect	text6
  1258  0016EE                     __ptext6:
  1259                           	callstack 0
  1260  0016EE                     _draw_string:
  1261                           	callstack 27
  1262  0016EE                     
  1263                           ;afficheur.c: 302:     while(tableau[0]!=0)
  1264  0016EE  EF91  F00B         	goto	l1802
  1265  0016F2                     l82:
  1266                           
  1267                           ;afficheur.c: 305:             __nop();
  1268  0016F2  F000               	nop	
  1269  0016F4                     l1798:
  1270                           
  1271                           ;afficheur.c: 304:         while(d1command(tableau[0]-32,0xC0)==0)
  1272  0016F4  0EC0               	movlw	192
  1273  0016F6  6E05               	movwf	d1command@cmd^0,c
  1274  0016F8  C008  FFF6         	movff	draw_string@tableau,tblptrl
  1275  0016FC  C009  FFF7         	movff	draw_string@tableau+1,tblptrh
  1276  001700                     	if	0	;tblptru may be non-zero
  1277  001700                     	endif
  1278  001700                     	if	1	;Program memory is > 0xFFFF, there are 3 active tblptr bytes
  1279  001700  0E00               	movlw	low (__mediumconst shr (0+16))
  1280  001702  6EF8               	movwf	tblptru,c
  1281  001704                     	endif
  1282  001704  0008               	tblrd		*
  1283  001706  50F5               	movf	tablat,w,c
  1284  001708  0FE0               	addlw	224
  1285  00170A  ECA2  F00B         	call	_d1command
  1286  00170E  0900               	iorlw	0
  1287  001710  B4D8               	btfsc	status,2,c
  1288  001712  EF8D  F00B         	goto	u831
  1289  001716  EF8F  F00B         	goto	u830
  1290  00171A                     u831:
  1291  00171A  EF79  F00B         	goto	l82
  1292  00171E                     u830:
  1293  00171E                     
  1294                           ;afficheur.c: 306:         tableau++;
  1295  00171E  4A08               	infsnz	draw_string@tableau^0,f,c
  1296  001720  2A09               	incf	(draw_string@tableau+1)^0,f,c
  1297  001722                     l1802:
  1298                           
  1299                           ;afficheur.c: 302:     while(tableau[0]!=0)
  1300  001722  C008  FFF6         	movff	draw_string@tableau,tblptrl
  1301  001726  C009  FFF7         	movff	draw_string@tableau+1,tblptrh
  1302  00172A                     	if	0	;tblptru may be non-zero
  1303  00172A                     	endif
  1304  00172A                     	if	1	;Program memory is > 0xFFFF, there are 3 active tblptr bytes
  1305  00172A  0E00               	movlw	low (__mediumconst shr (0+16))
  1306  00172C  6EF8               	movwf	tblptru,c
  1307  00172E                     	endif
  1308  00172E  0008               	tblrd		*
  1309  001730  50F5               	movf	tablat,w,c
  1310  001732  0900               	iorlw	0
  1311  001734  A4D8               	btfss	status,2,c
  1312  001736  EF9F  F00B         	goto	u841
  1313  00173A  EFA1  F00B         	goto	u840
  1314  00173E                     u841:
  1315  00173E  EF7A  F00B         	goto	l1798
  1316  001742                     u840:
  1317  001742  0012               	return		;funcret
  1318  001744                     __end_of_draw_string:
  1319                           	callstack 0
  1320                           
  1321 ;; *************** function _draw_hex8 *****************
  1322 ;; Defined at:
  1323 ;;		line 315 in file "afficheur.c"
  1324 ;; Parameters:    Size  Location     Type
  1325 ;;  octet           1    wreg     unsigned char 
  1326 ;; Auto vars:     Size  Location     Type
  1327 ;;  octet           1    7[COMRAM] unsigned char 
  1328 ;;  c               1    8[COMRAM] unsigned char 
  1329 ;; Return value:  Size  Location     Type
  1330 ;;                  1    wreg      void 
  1331 ;; Registers used:
  1332 ;;		wreg, status,2, status,0, cstack
  1333 ;; Tracked objects:
  1334 ;;		On entry : 0/0
  1335 ;;		On exit  : 0/0
  1336 ;;		Unchanged: 0/0
  1337 ;; Data sizes:     COMRAM   BANK0   BANK1   BANK2   BANK3   BANK4   BANK5   BANK6   BANK7   BANK8   BANK9  BANK10  BANK1
      +1  BANK12  BANK13  BANK14  BANK15
  1338 ;;      Params:         0       0       0       0       0       0       0       0       0       0       0       0       
      +0       0       0       0       0
  1339 ;;      Locals:         2       0       0       0       0       0       0       0       0       0       0       0       
      +0       0       0       0       0
  1340 ;;      Temps:          0       0       0       0       0       0       0       0       0       0       0       0       
      +0       0       0       0       0
  1341 ;;      Totals:         2       0       0       0       0       0       0       0       0       0       0       0       
      +0       0       0       0       0
  1342 ;;Total ram usage:        2 bytes
  1343 ;; Hardware stack levels used: 1
  1344 ;; Hardware stack levels required when called: 3
  1345 ;; This function calls:
  1346 ;;		_d1command
  1347 ;; This function is called by:
  1348 ;;		_main
  1349 ;; This function uses a non-reentrant model
  1350 ;;
  1351                           
  1352                           	psect	text7
  1353  001474                     __ptext7:
  1354                           	callstack 0
  1355  001474                     _draw_hex8:
  1356                           	callstack 27
  1357                           
  1358                           ;incstack = 0
  1359                           ;draw_hex8@octet stored from wreg
  1360  001474  6E08               	movwf	draw_hex8@octet^0,c
  1361  001476                     
  1362                           ;afficheur.c: 316:     unsigned char c;;afficheur.c: 318:     c=(octet>>4);
  1363  001476  3808               	swapf	draw_hex8@octet^0,w,c
  1364  001478  0B0F               	andlw	15
  1365  00147A  6E09               	movwf	draw_hex8@c^0,c
  1366                           
  1367                           ;afficheur.c: 319:     if (c>9)
  1368  00147C  0E09               	movlw	9
  1369  00147E  6409               	cpfsgt	draw_hex8@c^0,c
  1370  001480  EF44  F00A         	goto	u851
  1371  001484  EF46  F00A         	goto	u850
  1372  001488                     u851:
  1373  001488  EF4B  F00A         	goto	l1808
  1374  00148C                     u850:
  1375  00148C                     
  1376                           ;afficheur.c: 320:         c=c+0x17;
  1377  00148C  5009               	movf	draw_hex8@c^0,w,c
  1378  00148E  0F17               	addlw	23
  1379  001490  6E09               	movwf	draw_hex8@c^0,c
  1380  001492  EF51  F00A         	goto	l1810
  1381  001496                     l1808:
  1382                           
  1383                           ;afficheur.c: 322:         c=c+0x10;
  1384  001496  5009               	movf	draw_hex8@c^0,w,c
  1385  001498  0F10               	addlw	16
  1386  00149A  6E09               	movwf	draw_hex8@c^0,c
  1387  00149C  EF51  F00A         	goto	l1810
  1388  0014A0                     l91:
  1389                           
  1390                           ;afficheur.c: 324:         __nop();
  1391  0014A0  F000               	nop	
  1392  0014A2                     l1810:
  1393                           
  1394                           ;afficheur.c: 323:     while(d1command(c,0xC0)==0)
  1395  0014A2  0EC0               	movlw	192
  1396  0014A4  6E05               	movwf	d1command@cmd^0,c
  1397  0014A6  5009               	movf	draw_hex8@c^0,w,c
  1398  0014A8  ECA2  F00B         	call	_d1command
  1399  0014AC  0900               	iorlw	0
  1400  0014AE  B4D8               	btfsc	status,2,c
  1401  0014B0  EF5C  F00A         	goto	u861
  1402  0014B4  EF5E  F00A         	goto	u860
  1403  0014B8                     u861:
  1404  0014B8  EF50  F00A         	goto	l91
  1405  0014BC                     u860:
  1406  0014BC                     
  1407                           ;afficheur.c: 326:     c=(octet&0x0F);
  1408  0014BC  5008               	movf	draw_hex8@octet^0,w,c
  1409  0014BE  0B0F               	andlw	15
  1410  0014C0  6E09               	movwf	draw_hex8@c^0,c
  1411                           
  1412                           ;afficheur.c: 327:     if (c>9)
  1413  0014C2  0E09               	movlw	9
  1414  0014C4  6409               	cpfsgt	draw_hex8@c^0,c
  1415  0014C6  EF67  F00A         	goto	u871
  1416  0014CA  EF69  F00A         	goto	u870
  1417  0014CE                     u871:
  1418  0014CE  EF6E  F00A         	goto	l1816
  1419  0014D2                     u870:
  1420  0014D2                     
  1421                           ;afficheur.c: 328:         c=c+0x17;
  1422  0014D2  5009               	movf	draw_hex8@c^0,w,c
  1423  0014D4  0F17               	addlw	23
  1424  0014D6  6E09               	movwf	draw_hex8@c^0,c
  1425  0014D8  EF74  F00A         	goto	l1818
  1426  0014DC                     l1816:
  1427                           
  1428                           ;afficheur.c: 330:         c=c+0x10;
  1429  0014DC  5009               	movf	draw_hex8@c^0,w,c
  1430  0014DE  0F10               	addlw	16
  1431  0014E0  6E09               	movwf	draw_hex8@c^0,c
  1432  0014E2  EF74  F00A         	goto	l1818
  1433  0014E6                     l96:
  1434                           
  1435                           ;afficheur.c: 332:         __nop();
  1436  0014E6  F000               	nop	
  1437  0014E8                     l1818:
  1438                           
  1439                           ;afficheur.c: 331:     while(d1command(c,0xC0)==0)
  1440  0014E8  0EC0               	movlw	192
  1441  0014EA  6E05               	movwf	d1command@cmd^0,c
  1442  0014EC  5009               	movf	draw_hex8@c^0,w,c
  1443  0014EE  ECA2  F00B         	call	_d1command
  1444  0014F2  0900               	iorlw	0
  1445  0014F4  B4D8               	btfsc	status,2,c
  1446  0014F6  EF7F  F00A         	goto	u881
  1447  0014FA  EF81  F00A         	goto	u880
  1448  0014FE                     u881:
  1449  0014FE  EF73  F00A         	goto	l96
  1450  001502                     u880:
  1451  001502  0012               	return		;funcret
  1452  001504                     __end_of_draw_hex8:
  1453                           	callstack 0
  1454                           
  1455 ;; *************** function _clear_text *****************
  1456 ;; Defined at:
  1457 ;;		line 357 in file "afficheur.c"
  1458 ;; Parameters:    Size  Location     Type
  1459 ;;		None
  1460 ;; Auto vars:     Size  Location     Type
  1461 ;;  add             2    8[COMRAM] unsigned int 
  1462 ;; Return value:  Size  Location     Type
  1463 ;;                  1    wreg      void 
  1464 ;; Registers used:
  1465 ;;		wreg, status,2, status,0, cstack
  1466 ;; Tracked objects:
  1467 ;;		On entry : 0/0
  1468 ;;		On exit  : 0/0
  1469 ;;		Unchanged: 0/0
  1470 ;; Data sizes:     COMRAM   BANK0   BANK1   BANK2   BANK3   BANK4   BANK5   BANK6   BANK7   BANK8   BANK9  BANK10  BANK1
      +1  BANK12  BANK13  BANK14  BANK15
  1471 ;;      Params:         0       0       0       0       0       0       0       0       0       0       0       0       
      +0       0       0       0       0
  1472 ;;      Locals:         2       0       0       0       0       0       0       0       0       0       0       0       
      +0       0       0       0       0
  1473 ;;      Temps:          0       0       0       0       0       0       0       0       0       0       0       0       
      +0       0       0       0       0
  1474 ;;      Totals:         2       0       0       0       0       0       0       0       0       0       0       0       
      +0       0       0       0       0
  1475 ;;Total ram usage:        2 bytes
  1476 ;; Hardware stack levels used: 1
  1477 ;; Hardware stack levels required when called: 3
  1478 ;; This function calls:
  1479 ;;		_d1command
  1480 ;;		_d2command
  1481 ;; This function is called by:
  1482 ;;		_main
  1483 ;; This function uses a non-reentrant model
  1484 ;;
  1485                           
  1486                           	psect	text8
  1487  0017CC                     __ptext8:
  1488                           	callstack 0
  1489  0017CC                     _clear_text:
  1490                           	callstack 27
  1491  0017CC                     
  1492                           ;afficheur.c: 358:     unsigned int add;;afficheur.c: 360:     d2command(0,0,0x24);
  1493  0017CC  0E00               	movlw	0
  1494  0017CE  6E05               	movwf	d2command@d2^0,c
  1495  0017D0  0E24               	movlw	36
  1496  0017D2  6E06               	movwf	d2command@cmd^0,c
  1497  0017D4  0E00               	movlw	0
  1498  0017D6  EC40  F00B         	call	_d2command
  1499  0017DA                     
  1500                           ;afficheur.c: 361:     for (add=0;add!=0x8000;add++)
  1501  0017DA  0E00               	movlw	0
  1502  0017DC  6E0A               	movwf	(clear_text@add+1)^0,c
  1503  0017DE  0E00               	movlw	0
  1504  0017E0  6E09               	movwf	clear_text@add^0,c
  1505  0017E2                     l1842:
  1506                           
  1507                           ;afficheur.c: 362:     {;afficheur.c: 363:             d1command(0x00,0xC0);
  1508  0017E2  0EC0               	movlw	192
  1509  0017E4  6E05               	movwf	d1command@cmd^0,c
  1510  0017E6  0E00               	movlw	0
  1511  0017E8  ECA2  F00B         	call	_d1command
  1512  0017EC                     
  1513                           ;afficheur.c: 364:     }
  1514  0017EC  4A09               	infsnz	clear_text@add^0,f,c
  1515  0017EE  2A0A               	incf	(clear_text@add+1)^0,f,c
  1516  0017F0  0E80               	movlw	128
  1517  0017F2  180A               	xorwf	(clear_text@add+1)^0,w,c
  1518  0017F4  1009               	iorwf	clear_text@add^0,w,c
  1519  0017F6  A4D8               	btfss	status,2,c
  1520  0017F8  EF00  F00C         	goto	u921
  1521  0017FC  EF02  F00C         	goto	u920
  1522  001800                     u921:
  1523  001800  EFF1  F00B         	goto	l1842
  1524  001804                     u920:
  1525  001804  0012               	return		;funcret
  1526  001806                     __end_of_clear_text:
  1527                           	callstack 0
  1528                           
  1529 ;; *************** function _clear_graphics *****************
  1530 ;; Defined at:
  1531 ;;		line 371 in file "afficheur.c"
  1532 ;; Parameters:    Size  Location     Type
  1533 ;;		None
  1534 ;; Auto vars:     Size  Location     Type
  1535 ;;  add             2    8[COMRAM] unsigned int 
  1536 ;; Return value:  Size  Location     Type
  1537 ;;                  1    wreg      void 
  1538 ;; Registers used:
  1539 ;;		wreg, status,2, status,0, cstack
  1540 ;; Tracked objects:
  1541 ;;		On entry : 0/0
  1542 ;;		On exit  : 0/0
  1543 ;;		Unchanged: 0/0
  1544 ;; Data sizes:     COMRAM   BANK0   BANK1   BANK2   BANK3   BANK4   BANK5   BANK6   BANK7   BANK8   BANK9  BANK10  BANK1
      +1  BANK12  BANK13  BANK14  BANK15
  1545 ;;      Params:         0       0       0       0       0       0       0       0       0       0       0       0       
      +0       0       0       0       0
  1546 ;;      Locals:         2       0       0       0       0       0       0       0       0       0       0       0       
      +0       0       0       0       0
  1547 ;;      Temps:          0       0       0       0       0       0       0       0       0       0       0       0       
      +0       0       0       0       0
  1548 ;;      Totals:         2       0       0       0       0       0       0       0       0       0       0       0       
      +0       0       0       0       0
  1549 ;;Total ram usage:        2 bytes
  1550 ;; Hardware stack levels used: 1
  1551 ;; Hardware stack levels required when called: 3
  1552 ;; This function calls:
  1553 ;;		_d1command
  1554 ;;		_d2command
  1555 ;; This function is called by:
  1556 ;;		_main
  1557 ;; This function uses a non-reentrant model
  1558 ;;
  1559                           
  1560                           	psect	text9
  1561  001806                     __ptext9:
  1562                           	callstack 0
  1563  001806                     _clear_graphics:
  1564                           	callstack 27
  1565  001806                     
  1566                           ;afficheur.c: 372:     unsigned int add;;afficheur.c: 374:     d2command(0,0x80,0x24);
  1567  001806  0E80               	movlw	128
  1568  001808  6E05               	movwf	d2command@d2^0,c
  1569  00180A  0E24               	movlw	36
  1570  00180C  6E06               	movwf	d2command@cmd^0,c
  1571  00180E  0E00               	movlw	0
  1572  001810  EC40  F00B         	call	_d2command
  1573  001814                     
  1574                           ;afficheur.c: 375:     for (add=0x8000;add!=0xF800;add++)
  1575  001814  0E80               	movlw	128
  1576  001816  6E0A               	movwf	(clear_graphics@add+1)^0,c
  1577  001818  0E00               	movlw	0
  1578  00181A  6E09               	movwf	clear_graphics@add^0,c
  1579  00181C                     l1856:
  1580                           
  1581                           ;afficheur.c: 376:     {;afficheur.c: 377:             d1command(0x00,0xC0);
  1582  00181C  0EC0               	movlw	192
  1583  00181E  6E05               	movwf	d1command@cmd^0,c
  1584  001820  0E00               	movlw	0
  1585  001822  ECA2  F00B         	call	_d1command
  1586  001826                     
  1587                           ;afficheur.c: 378:     }
  1588  001826  4A09               	infsnz	clear_graphics@add^0,f,c
  1589  001828  2A0A               	incf	(clear_graphics@add+1)^0,f,c
  1590  00182A  0EF8               	movlw	248
  1591  00182C  180A               	xorwf	(clear_graphics@add+1)^0,w,c
  1592  00182E  1009               	iorwf	clear_graphics@add^0,w,c
  1593  001830  A4D8               	btfss	status,2,c
  1594  001832  EF1D  F00C         	goto	u931
  1595  001836  EF1F  F00C         	goto	u930
  1596  00183A                     u931:
  1597  00183A  EF0E  F00C         	goto	l1856
  1598  00183E                     u930:
  1599  00183E  0012               	return		;funcret
  1600  001840                     __end_of_clear_graphics:
  1601                           	callstack 0
  1602                           
  1603 ;; *************** function _d2command *****************
  1604 ;; Defined at:
  1605 ;;		line 172 in file "afficheur.c"
  1606 ;; Parameters:    Size  Location     Type
  1607 ;;  d1              1    wreg     unsigned char 
  1608 ;;  d2              1    4[COMRAM] unsigned char 
  1609 ;;  cmd             1    5[COMRAM] unsigned char 
  1610 ;; Auto vars:     Size  Location     Type
  1611 ;;  d1              1    6[COMRAM] unsigned char 
  1612 ;;  res             1    7[COMRAM] unsigned char 
  1613 ;; Return value:  Size  Location     Type
  1614 ;;                  1    wreg      unsigned char 
  1615 ;; Registers used:
  1616 ;;		wreg, status,2, status,0, cstack
  1617 ;; Tracked objects:
  1618 ;;		On entry : 0/0
  1619 ;;		On exit  : 0/0
  1620 ;;		Unchanged: 0/0
  1621 ;; Data sizes:     COMRAM   BANK0   BANK1   BANK2   BANK3   BANK4   BANK5   BANK6   BANK7   BANK8   BANK9  BANK10  BANK1
      +1  BANK12  BANK13  BANK14  BANK15
  1622 ;;      Params:         2       0       0       0       0       0       0       0       0       0       0       0       
      +0       0       0       0       0
  1623 ;;      Locals:         2       0       0       0       0       0       0       0       0       0       0       0       
      +0       0       0       0       0
  1624 ;;      Temps:          0       0       0       0       0       0       0       0       0       0       0       0       
      +0       0       0       0       0
  1625 ;;      Totals:         4       0       0       0       0       0       0       0       0       0       0       0       
      +0       0       0       0       0
  1626 ;;Total ram usage:        4 bytes
  1627 ;; Hardware stack levels used: 1
  1628 ;; Hardware stack levels required when called: 2
  1629 ;; This function calls:
  1630 ;;		_delai_us_char
  1631 ;;		_wait_status_ok
  1632 ;;		_write_c_aff
  1633 ;;		_write_d_aff
  1634 ;; This function is called by:
  1635 ;;		_initialisation_afficheur
  1636 ;;		_goto_lico
  1637 ;;		_clear_text
  1638 ;;		_clear_graphics
  1639 ;;		_clear_cgram
  1640 ;;		_plot1
  1641 ;;		_plot0
  1642 ;; This function uses a non-reentrant model
  1643 ;;
  1644                           
  1645                           	psect	text10
  1646  001680                     __ptext10:
  1647                           	callstack 0
  1648  001680                     _d2command:
  1649                           	callstack 27
  1650                           
  1651                           ;incstack = 0
  1652                           ;d2command@d1 stored from wreg
  1653  001680  6E07               	movwf	d2command@d1^0,c
  1654  001682                     
  1655                           ;afficheur.c: 173:     unsigned char res;;afficheur.c: 175:     res=0;
  1656  001682  0E00               	movlw	0
  1657  001684  6E08               	movwf	d2command@res^0,c
  1658  001686                     
  1659                           ;afficheur.c: 177:     if (wait_status_ok()==1)
  1660  001686  EC05  F00B         	call	_wait_status_ok	;wreg free
  1661  00168A  06E8               	decf	wreg,f,c
  1662  00168C  A4D8               	btfss	status,2,c
  1663  00168E  EF4B  F00B         	goto	u781
  1664  001692  EF4D  F00B         	goto	u780
  1665  001696                     u781:
  1666  001696  EF75  F00B         	goto	l1764
  1667  00169A                     u780:
  1668  00169A                     
  1669                           ;afficheur.c: 178:     {;afficheur.c: 179:         delai_us_char(12);
  1670  00169A  0E0C               	movlw	12
  1671  00169C  EC3A  F00C         	call	_delai_us_char
  1672  0016A0                     
  1673                           ;afficheur.c: 180:         write_d_aff(d1);
  1674  0016A0  5007               	movf	d2command@d1^0,w,c
  1675  0016A2  EC83  F00C         	call	_write_d_aff
  1676  0016A6                     
  1677                           ;afficheur.c: 181:         if (wait_status_ok()==1)
  1678  0016A6  EC05  F00B         	call	_wait_status_ok	;wreg free
  1679  0016AA  06E8               	decf	wreg,f,c
  1680  0016AC  A4D8               	btfss	status,2,c
  1681  0016AE  EF5B  F00B         	goto	u791
  1682  0016B2  EF5D  F00B         	goto	u790
  1683  0016B6                     u791:
  1684  0016B6  EF75  F00B         	goto	l1764
  1685  0016BA                     u790:
  1686  0016BA                     
  1687                           ;afficheur.c: 182:         {;afficheur.c: 183:             delai_us_char(12);
  1688  0016BA  0E0C               	movlw	12
  1689  0016BC  EC3A  F00C         	call	_delai_us_char
  1690  0016C0                     
  1691                           ;afficheur.c: 184:             write_d_aff(d2);
  1692  0016C0  5005               	movf	d2command@d2^0,w,c
  1693  0016C2  EC83  F00C         	call	_write_d_aff
  1694  0016C6                     
  1695                           ;afficheur.c: 185:             if (wait_status_ok()==1)
  1696  0016C6  EC05  F00B         	call	_wait_status_ok	;wreg free
  1697  0016CA  06E8               	decf	wreg,f,c
  1698  0016CC  A4D8               	btfss	status,2,c
  1699  0016CE  EF6B  F00B         	goto	u801
  1700  0016D2  EF6D  F00B         	goto	u800
  1701  0016D6                     u801:
  1702  0016D6  EF75  F00B         	goto	l1764
  1703  0016DA                     u800:
  1704  0016DA                     
  1705                           ;afficheur.c: 186:             {;afficheur.c: 187:                 delai_us_char(12);
  1706  0016DA  0E0C               	movlw	12
  1707  0016DC  EC3A  F00C         	call	_delai_us_char
  1708  0016E0                     
  1709                           ;afficheur.c: 188:                 write_c_aff(cmd);
  1710  0016E0  5006               	movf	d2command@cmd^0,w,c
  1711  0016E2  EC90  F00C         	call	_write_c_aff
  1712  0016E6                     
  1713                           ;afficheur.c: 190:                     res=1;
  1714  0016E6  0E01               	movlw	1
  1715  0016E8  6E08               	movwf	d2command@res^0,c
  1716  0016EA                     l1764:
  1717                           
  1718                           ;afficheur.c: 194:     return res;
  1719  0016EA  5008               	movf	d2command@res^0,w,c
  1720  0016EC  0012               	return		;funcret
  1721  0016EE                     __end_of_d2command:
  1722                           	callstack 0
  1723                           
  1724 ;; *************** function _d1command *****************
  1725 ;; Defined at:
  1726 ;;		line 143 in file "afficheur.c"
  1727 ;; Parameters:    Size  Location     Type
  1728 ;;  d1              1    wreg     unsigned char 
  1729 ;;  cmd             1    4[COMRAM] unsigned char 
  1730 ;; Auto vars:     Size  Location     Type
  1731 ;;  d1              1    5[COMRAM] unsigned char 
  1732 ;;  res             1    6[COMRAM] unsigned char 
  1733 ;; Return value:  Size  Location     Type
  1734 ;;                  1    wreg      unsigned char 
  1735 ;; Registers used:
  1736 ;;		wreg, status,2, status,0, cstack
  1737 ;; Tracked objects:
  1738 ;;		On entry : 0/0
  1739 ;;		On exit  : 0/0
  1740 ;;		Unchanged: 0/0
  1741 ;; Data sizes:     COMRAM   BANK0   BANK1   BANK2   BANK3   BANK4   BANK5   BANK6   BANK7   BANK8   BANK9  BANK10  BANK1
      +1  BANK12  BANK13  BANK14  BANK15
  1742 ;;      Params:         1       0       0       0       0       0       0       0       0       0       0       0       
      +0       0       0       0       0
  1743 ;;      Locals:         2       0       0       0       0       0       0       0       0       0       0       0       
      +0       0       0       0       0
  1744 ;;      Temps:          0       0       0       0       0       0       0       0       0       0       0       0       
      +0       0       0       0       0
  1745 ;;      Totals:         3       0       0       0       0       0       0       0       0       0       0       0       
      +0       0       0       0       0
  1746 ;;Total ram usage:        3 bytes
  1747 ;; Hardware stack levels used: 1
  1748 ;; Hardware stack levels required when called: 2
  1749 ;; This function calls:
  1750 ;;		_delai_us_char
  1751 ;;		_wait_status_ok
  1752 ;;		_write_c_aff
  1753 ;;		_write_d_aff
  1754 ;; This function is called by:
  1755 ;;		_initialisation_afficheur
  1756 ;;		_draw_string
  1757 ;;		_draw_hex8
  1758 ;;		_clear_text
  1759 ;;		_clear_graphics
  1760 ;;		_draw_char
  1761 ;;		_clear_cgram
  1762 ;; This function uses a non-reentrant model
  1763 ;;
  1764                           
  1765                           	psect	text11
  1766  001744                     __ptext11:
  1767                           	callstack 0
  1768  001744                     _d1command:
  1769                           	callstack 27
  1770                           
  1771                           ;incstack = 0
  1772                           ;d1command@d1 stored from wreg
  1773  001744  6E06               	movwf	d1command@d1^0,c
  1774  001746                     
  1775                           ;afficheur.c: 144:     unsigned char res;;afficheur.c: 146:     res=0;
  1776  001746  0E00               	movlw	0
  1777  001748  6E07               	movwf	d1command@res^0,c
  1778  00174A                     
  1779                           ;afficheur.c: 148:     if (wait_status_ok()==1)
  1780  00174A  EC05  F00B         	call	_wait_status_ok	;wreg free
  1781  00174E  06E8               	decf	wreg,f,c
  1782  001750  A4D8               	btfss	status,2,c
  1783  001752  EFAD  F00B         	goto	u761
  1784  001756  EFAF  F00B         	goto	u760
  1785  00175A                     u761:
  1786  00175A  EFC7  F00B         	goto	l1738
  1787  00175E                     u760:
  1788  00175E                     
  1789                           ;afficheur.c: 149:     {;afficheur.c: 150:         delai_us_char(12);
  1790  00175E  0E0C               	movlw	12
  1791  001760  EC3A  F00C         	call	_delai_us_char
  1792  001764                     
  1793                           ;afficheur.c: 151:         write_d_aff(d1);
  1794  001764  5006               	movf	d1command@d1^0,w,c
  1795  001766  EC83  F00C         	call	_write_d_aff
  1796  00176A                     
  1797                           ;afficheur.c: 152:         if (wait_status_ok()==1)
  1798  00176A  EC05  F00B         	call	_wait_status_ok	;wreg free
  1799  00176E  06E8               	decf	wreg,f,c
  1800  001770  A4D8               	btfss	status,2,c
  1801  001772  EFBD  F00B         	goto	u771
  1802  001776  EFBF  F00B         	goto	u770
  1803  00177A                     u771:
  1804  00177A  EFC7  F00B         	goto	l1738
  1805  00177E                     u770:
  1806  00177E                     
  1807                           ;afficheur.c: 153:         {;afficheur.c: 154:             delai_us_char(12);
  1808  00177E  0E0C               	movlw	12
  1809  001780  EC3A  F00C         	call	_delai_us_char
  1810  001784                     
  1811                           ;afficheur.c: 155:             write_c_aff(cmd);
  1812  001784  5005               	movf	d1command@cmd^0,w,c
  1813  001786  EC90  F00C         	call	_write_c_aff
  1814  00178A                     
  1815                           ;afficheur.c: 157:                 res=1;
  1816  00178A  0E01               	movlw	1
  1817  00178C  6E07               	movwf	d1command@res^0,c
  1818  00178E                     l1738:
  1819                           
  1820                           ;afficheur.c: 161:     return res;
  1821  00178E  5007               	movf	d1command@res^0,w,c
  1822  001790  0012               	return		;funcret
  1823  001792                     __end_of_d1command:
  1824                           	callstack 0
  1825                           
  1826 ;; *************** function _write_d_aff *****************
  1827 ;; Defined at:
  1828 ;;		line 27 in file "afficheur.c"
  1829 ;; Parameters:    Size  Location     Type
  1830 ;;  data            1    wreg     unsigned char 
  1831 ;; Auto vars:     Size  Location     Type
  1832 ;;  data            1    0[COMRAM] unsigned char 
  1833 ;; Return value:  Size  Location     Type
  1834 ;;                  1    wreg      void 
  1835 ;; Registers used:
  1836 ;;		wreg, status,2
  1837 ;; Tracked objects:
  1838 ;;		On entry : 0/0
  1839 ;;		On exit  : 0/0
  1840 ;;		Unchanged: 0/0
  1841 ;; Data sizes:     COMRAM   BANK0   BANK1   BANK2   BANK3   BANK4   BANK5   BANK6   BANK7   BANK8   BANK9  BANK10  BANK1
      +1  BANK12  BANK13  BANK14  BANK15
  1842 ;;      Params:         0       0       0       0       0       0       0       0       0       0       0       0       
      +0       0       0       0       0
  1843 ;;      Locals:         1       0       0       0       0       0       0       0       0       0       0       0       
      +0       0       0       0       0
  1844 ;;      Temps:          0       0       0       0       0       0       0       0       0       0       0       0       
      +0       0       0       0       0
  1845 ;;      Totals:         1       0       0       0       0       0       0       0       0       0       0       0       
      +0       0       0       0       0
  1846 ;;Total ram usage:        1 bytes
  1847 ;; Hardware stack levels used: 1
  1848 ;; This function calls:
  1849 ;;		Nothing
  1850 ;; This function is called by:
  1851 ;;		_d1command
  1852 ;;		_d2command
  1853 ;; This function uses a non-reentrant model
  1854 ;;
  1855                           
  1856                           	psect	text12
  1857  001906                     __ptext12:
  1858                           	callstack 0
  1859  001906                     _write_d_aff:
  1860                           	callstack 28
  1861                           
  1862                           ;incstack = 0
  1863                           ;write_d_aff@data stored from wreg
  1864  001906  6E01               	movwf	write_d_aff@data^0,c
  1865  001908                     
  1866                           ;afficheur.c: 28:     LATH=data;
  1867  001908  C001  FF90         	movff	write_d_aff@data,3984	;volatile
  1868  00190C                     
  1869                           ;afficheur.c: 29:     TRISH=0x00;
  1870  00190C  0E00               	movlw	0
  1871  00190E  6E99               	movwf	153,c	;volatile
  1872  001910                     
  1873                           ;afficheur.c: 30:     LATJbits.LATJ0=0;
  1874  001910  9091               	bcf	145,0,c	;volatile
  1875  001912                     
  1876                           ;afficheur.c: 31:     LATJbits.LATJ3=0;
  1877  001912  9691               	bcf	145,3,c	;volatile
  1878  001914                     
  1879                           ;afficheur.c: 32:     LATJbits.LATJ2=0;
  1880  001914  9491               	bcf	145,2,c	;volatile
  1881  001916                     
  1882                           ;afficheur.c: 33:     __nop();
  1883  001916  F000               	nop	
  1884  001918                     
  1885                           ;afficheur.c: 34:     __nop();
  1886  001918  F000               	nop	
  1887  00191A                     
  1888                           ;afficheur.c: 35:     LATJbits.LATJ2=1;
  1889  00191A  8491               	bsf	145,2,c	;volatile
  1890  00191C                     
  1891                           ;afficheur.c: 36:     LATJbits.LATJ3=1;
  1892  00191C  8691               	bsf	145,3,c	;volatile
  1893  00191E  0012               	return		;funcret
  1894  001920                     __end_of_write_d_aff:
  1895                           	callstack 0
  1896                           
  1897 ;; *************** function _write_c_aff *****************
  1898 ;; Defined at:
  1899 ;;		line 43 in file "afficheur.c"
  1900 ;; Parameters:    Size  Location     Type
  1901 ;;  command         1    wreg     unsigned char 
  1902 ;; Auto vars:     Size  Location     Type
  1903 ;;  command         1    0[COMRAM] unsigned char 
  1904 ;; Return value:  Size  Location     Type
  1905 ;;                  1    wreg      void 
  1906 ;; Registers used:
  1907 ;;		wreg, status,2
  1908 ;; Tracked objects:
  1909 ;;		On entry : 0/0
  1910 ;;		On exit  : 0/0
  1911 ;;		Unchanged: 0/0
  1912 ;; Data sizes:     COMRAM   BANK0   BANK1   BANK2   BANK3   BANK4   BANK5   BANK6   BANK7   BANK8   BANK9  BANK10  BANK1
      +1  BANK12  BANK13  BANK14  BANK15
  1913 ;;      Params:         0       0       0       0       0       0       0       0       0       0       0       0       
      +0       0       0       0       0
  1914 ;;      Locals:         1       0       0       0       0       0       0       0       0       0       0       0       
      +0       0       0       0       0
  1915 ;;      Temps:          0       0       0       0       0       0       0       0       0       0       0       0       
      +0       0       0       0       0
  1916 ;;      Totals:         1       0       0       0       0       0       0       0       0       0       0       0       
      +0       0       0       0       0
  1917 ;;Total ram usage:        1 bytes
  1918 ;; Hardware stack levels used: 1
  1919 ;; This function calls:
  1920 ;;		Nothing
  1921 ;; This function is called by:
  1922 ;;		_command
  1923 ;;		_d1command
  1924 ;;		_d2command
  1925 ;; This function uses a non-reentrant model
  1926 ;;
  1927                           
  1928                           	psect	text13
  1929  001920                     __ptext13:
  1930                           	callstack 0
  1931  001920                     _write_c_aff:
  1932                           	callstack 28
  1933                           
  1934                           ;incstack = 0
  1935                           ;write_c_aff@command stored from wreg
  1936  001920  6E01               	movwf	write_c_aff@command^0,c
  1937  001922                     
  1938                           ;afficheur.c: 44:     LATH=command;
  1939  001922  C001  FF90         	movff	write_c_aff@command,3984	;volatile
  1940  001926                     
  1941                           ;afficheur.c: 45:     TRISH=0x00;
  1942  001926  0E00               	movlw	0
  1943  001928  6E99               	movwf	153,c	;volatile
  1944  00192A                     
  1945                           ;afficheur.c: 46:     LATJbits.LATJ0=1;
  1946  00192A  8091               	bsf	145,0,c	;volatile
  1947  00192C                     
  1948                           ;afficheur.c: 47:     LATJbits.LATJ3=0;
  1949  00192C  9691               	bcf	145,3,c	;volatile
  1950  00192E                     
  1951                           ;afficheur.c: 48:     LATJbits.LATJ2=0;
  1952  00192E  9491               	bcf	145,2,c	;volatile
  1953  001930                     
  1954                           ;afficheur.c: 49:     __nop();
  1955  001930  F000               	nop	
  1956  001932                     
  1957                           ;afficheur.c: 50:     __nop();
  1958  001932  F000               	nop	
  1959  001934                     
  1960                           ;afficheur.c: 51:     LATJbits.LATJ2=1;
  1961  001934  8491               	bsf	145,2,c	;volatile
  1962  001936                     
  1963                           ;afficheur.c: 52:     LATJbits.LATJ3=1;
  1964  001936  8691               	bsf	145,3,c	;volatile
  1965  001938  0012               	return		;funcret
  1966  00193A                     __end_of_write_c_aff:
  1967                           	callstack 0
  1968                           
  1969 ;; *************** function _wait_status_ok *****************
  1970 ;; Defined at:
  1971 ;;		line 85 in file "afficheur.c"
  1972 ;; Parameters:    Size  Location     Type
  1973 ;;		None
  1974 ;; Auto vars:     Size  Location     Type
  1975 ;;  res             1    3[COMRAM] unsigned char 
  1976 ;;  status          1    2[COMRAM] unsigned char 
  1977 ;;  err             1    1[COMRAM] unsigned char 
  1978 ;; Return value:  Size  Location     Type
  1979 ;;                  1    wreg      unsigned char 
  1980 ;; Registers used:
  1981 ;;		wreg, status,2, status,0, cstack
  1982 ;; Tracked objects:
  1983 ;;		On entry : 0/0
  1984 ;;		On exit  : 0/0
  1985 ;;		Unchanged: 0/0
  1986 ;; Data sizes:     COMRAM   BANK0   BANK1   BANK2   BANK3   BANK4   BANK5   BANK6   BANK7   BANK8   BANK9  BANK10  BANK1
      +1  BANK12  BANK13  BANK14  BANK15
  1987 ;;      Params:         0       0       0       0       0       0       0       0       0       0       0       0       
      +0       0       0       0       0
  1988 ;;      Locals:         3       0       0       0       0       0       0       0       0       0       0       0       
      +0       0       0       0       0
  1989 ;;      Temps:          0       0       0       0       0       0       0       0       0       0       0       0       
      +0       0       0       0       0
  1990 ;;      Totals:         3       0       0       0       0       0       0       0       0       0       0       0       
      +0       0       0       0       0
  1991 ;;Total ram usage:        3 bytes
  1992 ;; Hardware stack levels used: 1
  1993 ;; Hardware stack levels required when called: 1
  1994 ;; This function calls:
  1995 ;;		_delai_us_char
  1996 ;; This function is called by:
  1997 ;;		_command
  1998 ;;		_d1command
  1999 ;;		_d2command
  2000 ;; This function uses a non-reentrant model
  2001 ;;
  2002                           
  2003                           	psect	text14
  2004  00160A                     __ptext14:
  2005                           	callstack 0
  2006  00160A                     _wait_status_ok:
  2007                           	callstack 27
  2008  00160A                     
  2009                           ;afficheur.c: 86:     unsigned char err,res,status;;afficheur.c: 88:     err=0;
  2010  00160A  0E00               	movlw	0
  2011  00160C  6E02               	movwf	wait_status_ok@err^0,c
  2012                           
  2013                           ;afficheur.c: 89:     res=2;
  2014  00160E  0E02               	movlw	2
  2015  001610  6E04               	movwf	wait_status_ok@res^0,c
  2016                           
  2017                           ;afficheur.c: 90:     while (res==2)
  2018  001612  EF35  F00B         	goto	l1196
  2019  001616                     l35:
  2020                           
  2021                           ;afficheur.c: 91:     {;afficheur.c: 92:         TRISH=0xFF;
  2022  001616  6899               	setf	153,c	;volatile
  2023                           
  2024                           ;afficheur.c: 93:         LATJbits.LATJ0=1;
  2025  001618  8091               	bsf	145,0,c	;volatile
  2026                           
  2027                           ;afficheur.c: 94:         LATJbits.LATJ3=0;
  2028  00161A  9691               	bcf	145,3,c	;volatile
  2029                           
  2030                           ;afficheur.c: 95:         LATJbits.LATJ1=0;
  2031  00161C  9291               	bcf	145,1,c	;volatile
  2032                           
  2033                           ;afficheur.c: 96:         __nop();
  2034  00161E  F000               	nop	
  2035                           
  2036                           ;afficheur.c: 97:         status=PORTH;
  2037  001620  CF87 F003          	movff	3975,wait_status_ok@status	;volatile
  2038                           
  2039                           ;afficheur.c: 98:         LATJbits.LATJ1=1;
  2040  001624  8291               	bsf	145,1,c	;volatile
  2041                           
  2042                           ;afficheur.c: 99:         LATJbits.LATJ3=1;
  2043  001626  8691               	bsf	145,3,c	;volatile
  2044  001628                     
  2045                           ;afficheur.c: 101:         status=(status&0x03);
  2046  001628  5003               	movf	wait_status_ok@status^0,w,c
  2047  00162A  0B03               	andlw	3
  2048  00162C  6E03               	movwf	wait_status_ok@status^0,c
  2049                           
  2050                           ;afficheur.c: 102:         if (status!=0x03)
  2051  00162E  0E03               	movlw	3
  2052  001630  1803               	xorwf	wait_status_ok@status^0,w,c
  2053  001632  B4D8               	btfsc	status,2,c
  2054  001634  EF1E  F00B         	goto	u21
  2055  001638  EF20  F00B         	goto	u20
  2056  00163C                     u21:
  2057  00163C  EF33  F00B         	goto	l1194
  2058  001640                     u20:
  2059  001640                     
  2060                           ;afficheur.c: 103:         {;afficheur.c: 104:             err++;
  2061  001640  2A02               	incf	wait_status_ok@err^0,f,c
  2062  001642                     
  2063                           ;afficheur.c: 105:             delai_us_char(12);
  2064  001642  0E0C               	movlw	12
  2065  001644  EC3A  F00C         	call	_delai_us_char
  2066  001648                     
  2067                           ;afficheur.c: 106:             if (err>=250)
  2068  001648  0EF9               	movlw	249
  2069  00164A  6402               	cpfsgt	wait_status_ok@err^0,c
  2070  00164C  EF2A  F00B         	goto	u31
  2071  001650  EF2C  F00B         	goto	u30
  2072  001654                     u31:
  2073  001654  EF35  F00B         	goto	l1196
  2074  001658                     u30:
  2075  001658                     
  2076                           ;afficheur.c: 107:             {;afficheur.c: 109:                 LATCbits.LATC2=0;LATC
      +                          bits.LATC1=1;LATGbits.LATG0=1;
  2077  001658  948B               	bcf	139,2,c	;volatile
  2078  00165A  828B               	bsf	139,1,c	;volatile
  2079  00165C  808F               	bsf	143,0,c	;volatile
  2080  00165E                     
  2081                           ;afficheur.c: 110:                 res=0;
  2082  00165E  0E00               	movlw	0
  2083  001660  6E04               	movwf	wait_status_ok@res^0,c
  2084  001662  EF35  F00B         	goto	l1196
  2085  001666                     l1194:
  2086                           
  2087                           ;afficheur.c: 114:         {;afficheur.c: 115:             res=1;
  2088  001666  0E01               	movlw	1
  2089  001668  6E04               	movwf	wait_status_ok@res^0,c
  2090  00166A                     l1196:
  2091                           
  2092                           ;afficheur.c: 90:     while (res==2)
  2093  00166A  0E02               	movlw	2
  2094  00166C  1804               	xorwf	wait_status_ok@res^0,w,c
  2095  00166E  B4D8               	btfsc	status,2,c
  2096  001670  EF3C  F00B         	goto	u41
  2097  001674  EF3E  F00B         	goto	u40
  2098  001678                     u41:
  2099  001678  EF0B  F00B         	goto	l35
  2100  00167C                     u40:
  2101  00167C                     
  2102                           ;afficheur.c: 118:     return res;
  2103  00167C  5004               	movf	wait_status_ok@res^0,w,c
  2104  00167E  0012               	return		;funcret
  2105  001680                     __end_of_wait_status_ok:
  2106                           	callstack 0
  2107                           
  2108 ;; *************** function _delai_us_char *****************
  2109 ;; Defined at:
  2110 ;;		line 202 in file "afficheur.c"
  2111 ;; Parameters:    Size  Location     Type
  2112 ;;  ucdelai         1    wreg     unsigned char 
  2113 ;; Auto vars:     Size  Location     Type
  2114 ;;  ucdelai         1    0[COMRAM] unsigned char 
  2115 ;; Return value:  Size  Location     Type
  2116 ;;                  1    wreg      void 
  2117 ;; Registers used:
  2118 ;;		wreg, status,2, status,0
  2119 ;; Tracked objects:
  2120 ;;		On entry : 0/0
  2121 ;;		On exit  : 0/0
  2122 ;;		Unchanged: 0/0
  2123 ;; Data sizes:     COMRAM   BANK0   BANK1   BANK2   BANK3   BANK4   BANK5   BANK6   BANK7   BANK8   BANK9  BANK10  BANK1
      +1  BANK12  BANK13  BANK14  BANK15
  2124 ;;      Params:         0       0       0       0       0       0       0       0       0       0       0       0       
      +0       0       0       0       0
  2125 ;;      Locals:         1       0       0       0       0       0       0       0       0       0       0       0       
      +0       0       0       0       0
  2126 ;;      Temps:          0       0       0       0       0       0       0       0       0       0       0       0       
      +0       0       0       0       0
  2127 ;;      Totals:         1       0       0       0       0       0       0       0       0       0       0       0       
      +0       0       0       0       0
  2128 ;;Total ram usage:        1 bytes
  2129 ;; Hardware stack levels used: 1
  2130 ;; This function calls:
  2131 ;;		Nothing
  2132 ;; This function is called by:
  2133 ;;		_wait_status_ok
  2134 ;;		_command
  2135 ;;		_d1command
  2136 ;;		_d2command
  2137 ;;		_initialisation_afficheur
  2138 ;; This function uses a non-reentrant model
  2139 ;;
  2140                           
  2141                           	psect	text15
  2142  001874                     __ptext15:
  2143                           	callstack 0
  2144  001874                     _delai_us_char:
  2145                           	callstack 29
  2146                           
  2147                           ;incstack = 0
  2148                           ;delai_us_char@ucdelai stored from wreg
  2149  001874  6E01               	movwf	delai_us_char@ucdelai^0,c
  2150  001876                     
  2151                           ;afficheur.c: 204:     while (ucdelai>0)
  2152  001876  EF48  F00C         	goto	l1142
  2153  00187A                     l59:
  2154                           
  2155                           ;afficheur.c: 205:     {;afficheur.c: 206:         __nop();__nop();__nop();__nop();__nop
      +                          ();__nop();__nop();__nop();__nop();__nop();
  2156  00187A  F000               	nop	
  2157  00187C  F000               	nop	
  2158  00187E  F000               	nop	
  2159  001880  F000               	nop	
  2160  001882  F000               	nop	
  2161  001884  F000               	nop	
  2162  001886  F000               	nop	
  2163  001888  F000               	nop	
  2164  00188A  F000               	nop	
  2165  00188C  F000               	nop	
  2166  00188E                     
  2167                           ;afficheur.c: 207:         ucdelai--;
  2168  00188E  0601               	decf	delai_us_char@ucdelai^0,f,c
  2169  001890                     l1142:
  2170                           
  2171                           ;afficheur.c: 204:     while (ucdelai>0)
  2172  001890  5001               	movf	delai_us_char@ucdelai^0,w,c
  2173  001892  A4D8               	btfss	status,2,c
  2174  001894  EF4E  F00C         	goto	u11
  2175  001898  EF50  F00C         	goto	u10
  2176  00189C                     u11:
  2177  00189C  EF3D  F00C         	goto	l59
  2178  0018A0                     u10:
  2179  0018A0  0012               	return		;funcret
  2180  0018A2                     __end_of_delai_us_char:
  2181                           	callstack 0
  2182                           
  2183 ;; *************** function _SPI_Initialize *****************
  2184 ;; Defined at:
  2185 ;;		line 26 in file "spi.c"
  2186 ;; Parameters:    Size  Location     Type
  2187 ;;		None
  2188 ;; Auto vars:     Size  Location     Type
  2189 ;;		None
  2190 ;; Return value:  Size  Location     Type
  2191 ;;                  1    wreg      void 
  2192 ;; Registers used:
  2193 ;;		wreg, status,2
  2194 ;; Tracked objects:
  2195 ;;		On entry : 0/0
  2196 ;;		On exit  : 0/0
  2197 ;;		Unchanged: 0/0
  2198 ;; Data sizes:     COMRAM   BANK0   BANK1   BANK2   BANK3   BANK4   BANK5   BANK6   BANK7   BANK8   BANK9  BANK10  BANK1
      +1  BANK12  BANK13  BANK14  BANK15
  2199 ;;      Params:         0       0       0       0       0       0       0       0       0       0       0       0       
      +0       0       0       0       0
  2200 ;;      Locals:         0       0       0       0       0       0       0       0       0       0       0       0       
      +0       0       0       0       0
  2201 ;;      Temps:          0       0       0       0       0       0       0       0       0       0       0       0       
      +0       0       0       0       0
  2202 ;;      Totals:         0       0       0       0       0       0       0       0       0       0       0       0       
      +0       0       0       0       0
  2203 ;;Total ram usage:        0 bytes
  2204 ;; Hardware stack levels used: 1
  2205 ;; This function calls:
  2206 ;;		Nothing
  2207 ;; This function is called by:
  2208 ;;		_main
  2209 ;; This function uses a non-reentrant model
  2210 ;;
  2211                           
  2212                           	psect	text16
  2213  00193A                     __ptext16:
  2214                           	callstack 0
  2215  00193A                     _SPI_Initialize:
  2216                           	callstack 30
  2217  00193A                     
  2218                           ;spi.c: 28:     SSP2STAT = 0x00;
  2219  00193A  0E00               	movlw	0
  2220  00193C  6E68               	movwf	104,c	;volatile
  2221                           
  2222                           ;spi.c: 29:     SSP2CON1 = 0x31;
  2223  00193E  0E31               	movlw	49
  2224  001940  6E67               	movwf	103,c	;volatile
  2225  001942                     
  2226                           ;spi.c: 33:     TRISDbits.TRISD4 = 0;
  2227  001942  9895               	bcf	149,4,c	;volatile
  2228  001944                     
  2229                           ;spi.c: 35:     TRISDbits.TRISD6 = 0;
  2230  001944  9C95               	bcf	149,6,c	;volatile
  2231  001946                     
  2232                           ;spi.c: 37:     TRISFbits.TRISF7 = 0;
  2233  001946  9E97               	bcf	151,7,c	;volatile
  2234  001948                     
  2235                           ;spi.c: 38:     LATFbits.LATF7 = 1;
  2236  001948  8E8E               	bsf	142,7,c	;volatile
  2237  00194A                     
  2238                           ;spi.c: 39:     PIR2bits.SSP2IF = 0;
  2239  00194A  9AA1               	bcf	161,5,c	;volatile
  2240  00194C                     
  2241                           ;spi.c: 41:     SSP2CON1bits.SSPEN = 1;
  2242  00194C  8A67               	bsf	103,5,c	;volatile
  2243  00194E  0012               	return		;funcret
  2244  001950                     __end_of_SPI_Initialize:
  2245                           	callstack 0
  2246                           
  2247 ;; *************** function _I2C_Write_Register *****************
  2248 ;; Defined at:
  2249 ;;		line 43 in file "i2c.c"
  2250 ;; Parameters:    Size  Location     Type
  2251 ;;  u8Address       1    wreg     unsigned char 
  2252 ;;  u8Register      1    0[COMRAM] unsigned char 
  2253 ;;  u8Value         1    1[COMRAM] unsigned char 
  2254 ;; Auto vars:     Size  Location     Type
  2255 ;;  u8Address       1    2[COMRAM] unsigned char 
  2256 ;; Return value:  Size  Location     Type
  2257 ;;                  1    wreg      void 
  2258 ;; Registers used:
  2259 ;;		wreg
  2260 ;; Tracked objects:
  2261 ;;		On entry : 0/0
  2262 ;;		On exit  : 0/0
  2263 ;;		Unchanged: 0/0
  2264 ;; Data sizes:     COMRAM   BANK0   BANK1   BANK2   BANK3   BANK4   BANK5   BANK6   BANK7   BANK8   BANK9  BANK10  BANK1
      +1  BANK12  BANK13  BANK14  BANK15
  2265 ;;      Params:         2       0       0       0       0       0       0       0       0       0       0       0       
      +0       0       0       0       0
  2266 ;;      Locals:         1       0       0       0       0       0       0       0       0       0       0       0       
      +0       0       0       0       0
  2267 ;;      Temps:          0       0       0       0       0       0       0       0       0       0       0       0       
      +0       0       0       0       0
  2268 ;;      Totals:         3       0       0       0       0       0       0       0       0       0       0       0       
      +0       0       0       0       0
  2269 ;;Total ram usage:        3 bytes
  2270 ;; Hardware stack levels used: 1
  2271 ;; This function calls:
  2272 ;;		Nothing
  2273 ;; This function is called by:
  2274 ;;		_main
  2275 ;; This function uses a non-reentrant model
  2276 ;;
  2277                           
  2278                           	psect	text17
  2279  001504                     __ptext17:
  2280                           	callstack 0
  2281  001504                     _I2C_Write_Register:
  2282                           	callstack 30
  2283                           
  2284                           ;incstack = 0
  2285                           ;I2C_Write_Register@u8Address stored from wreg
  2286  001504  6E03               	movwf	I2C_Write_Register@u8Address^0,c
  2287  001506                     
  2288                           ;i2c.c: 44:     SSP1CON2bits.SEN = 1;
  2289  001506  80C5               	bsf	197,0,c	;volatile
  2290  001508                     l210:
  2291  001508  B0C5               	btfsc	197,0,c	;volatile
  2292  00150A  EF89  F00A         	goto	u941
  2293  00150E  EF8B  F00A         	goto	u940
  2294  001512                     u941:
  2295  001512  EF84  F00A         	goto	l210
  2296  001516                     u940:
  2297  001516                     
  2298                           ;i2c.c: 47:     SSP1BUF = u8Address;
  2299  001516  C003  FFC9         	movff	I2C_Write_Register@u8Address,4041	;volatile
  2300  00151A                     
  2301                           ;i2c.c: 49:     PIR1bits.SSP1IF = 0;
  2302  00151A  969E               	bcf	158,3,c	;volatile
  2303  00151C                     l213:
  2304  00151C  A69E               	btfss	158,3,c	;volatile
  2305  00151E  EF93  F00A         	goto	u951
  2306  001522  EF95  F00A         	goto	u950
  2307  001526                     u951:
  2308  001526  EF8E  F00A         	goto	l213
  2309  00152A                     u950:
  2310  00152A                     l216:
  2311  00152A  BCC5               	btfsc	197,6,c	;volatile
  2312  00152C  EF9A  F00A         	goto	u961
  2313  001530  EF9C  F00A         	goto	u960
  2314  001534                     u961:
  2315  001534  EF95  F00A         	goto	l216
  2316  001538                     u960:
  2317  001538                     
  2318                           ;i2c.c: 54:     SSP1BUF = u8Register;
  2319  001538  C001  FFC9         	movff	I2C_Write_Register@u8Register,4041	;volatile
  2320                           
  2321                           ;i2c.c: 56:     PIR1bits.SSP1IF = 0;
  2322  00153C  969E               	bcf	158,3,c	;volatile
  2323  00153E                     l219:
  2324  00153E  A69E               	btfss	158,3,c	;volatile
  2325  001540  EFA4  F00A         	goto	u971
  2326  001544  EFA6  F00A         	goto	u970
  2327  001548                     u971:
  2328  001548  EF9F  F00A         	goto	l219
  2329  00154C                     u970:
  2330  00154C                     l222:
  2331  00154C  BCC5               	btfsc	197,6,c	;volatile
  2332  00154E  EFAB  F00A         	goto	u981
  2333  001552  EFAD  F00A         	goto	u980
  2334  001556                     u981:
  2335  001556  EFA6  F00A         	goto	l222
  2336  00155A                     u980:
  2337  00155A                     
  2338                           ;i2c.c: 61:     SSP1BUF = u8Value;
  2339  00155A  C002  FFC9         	movff	I2C_Write_Register@u8Value,4041	;volatile
  2340                           
  2341                           ;i2c.c: 63:     PIR1bits.SSP1IF = 0;
  2342  00155E  969E               	bcf	158,3,c	;volatile
  2343  001560                     l225:
  2344  001560  A69E               	btfss	158,3,c	;volatile
  2345  001562  EFB5  F00A         	goto	u991
  2346  001566  EFB7  F00A         	goto	u990
  2347  00156A                     u991:
  2348  00156A  EFB0  F00A         	goto	l225
  2349  00156E                     u990:
  2350  00156E                     l228:
  2351  00156E  BCC5               	btfsc	197,6,c	;volatile
  2352  001570  EFBC  F00A         	goto	u1001
  2353  001574  EFBE  F00A         	goto	u1000
  2354  001578                     u1001:
  2355  001578  EFB7  F00A         	goto	l228
  2356  00157C                     u1000:
  2357  00157C                     
  2358                           ;i2c.c: 68:     PIR1bits.SSP1IF = 0;
  2359  00157C  969E               	bcf	158,3,c	;volatile
  2360                           
  2361                           ;i2c.c: 70:     SSP1CON2bits.PEN = 1;
  2362  00157E  84C5               	bsf	197,2,c	;volatile
  2363  001580                     l231:
  2364  001580  A69E               	btfss	158,3,c	;volatile
  2365  001582  EFC5  F00A         	goto	u1011
  2366  001586  EFC7  F00A         	goto	u1010
  2367  00158A                     u1011:
  2368  00158A  EFC0  F00A         	goto	l231
  2369  00158E                     u1010:
  2370  00158E                     
  2371                           ;i2c.c: 72:     PIR1bits.SSP1IF = 0;
  2372  00158E  969E               	bcf	158,3,c	;volatile
  2373  001590  0012               	return		;funcret
  2374  001592                     __end_of_I2C_Write_Register:
  2375                           	callstack 0
  2376                           
  2377 ;; *************** function _I2C_Read_Registers *****************
  2378 ;; Defined at:
  2379 ;;		line 143 in file "i2c.c"
  2380 ;; Parameters:    Size  Location     Type
  2381 ;;  u8Address       1    wreg     unsigned char 
  2382 ;;  u8FirstRegis    1    0[COMRAM] unsigned char 
  2383 ;;  u8NbRegister    1    1[COMRAM] unsigned char 
  2384 ;;  pu8Values       2    2[COMRAM] PTR unsigned char 
  2385 ;;		 -> u8EventCounter(3), 
  2386 ;; Auto vars:     Size  Location     Type
  2387 ;;  u8Address       1    4[COMRAM] unsigned char 
  2388 ;;  u8Cpt           1    5[COMRAM] unsigned char 
  2389 ;; Return value:  Size  Location     Type
  2390 ;;                  1    wreg      void 
  2391 ;; Registers used:
  2392 ;;		wreg, fsr2l, fsr2h, status,2, status,0
  2393 ;; Tracked objects:
  2394 ;;		On entry : 0/0
  2395 ;;		On exit  : 0/0
  2396 ;;		Unchanged: 0/0
  2397 ;; Data sizes:     COMRAM   BANK0   BANK1   BANK2   BANK3   BANK4   BANK5   BANK6   BANK7   BANK8   BANK9  BANK10  BANK1
      +1  BANK12  BANK13  BANK14  BANK15
  2398 ;;      Params:         4       0       0       0       0       0       0       0       0       0       0       0       
      +0       0       0       0       0
  2399 ;;      Locals:         2       0       0       0       0       0       0       0       0       0       0       0       
      +0       0       0       0       0
  2400 ;;      Temps:          0       0       0       0       0       0       0       0       0       0       0       0       
      +0       0       0       0       0
  2401 ;;      Totals:         6       0       0       0       0       0       0       0       0       0       0       0       
      +0       0       0       0       0
  2402 ;;Total ram usage:        6 bytes
  2403 ;; Hardware stack levels used: 1
  2404 ;; This function calls:
  2405 ;;		Nothing
  2406 ;; This function is called by:
  2407 ;;		_main
  2408 ;; This function uses a non-reentrant model
  2409 ;;
  2410                           
  2411                           	psect	text18
  2412  0011A6                     __ptext18:
  2413                           	callstack 0
  2414  0011A6                     _I2C_Read_Registers:
  2415                           	callstack 30
  2416                           
  2417                           ;incstack = 0
  2418                           ;I2C_Read_Registers@u8Address stored from wreg
  2419  0011A6  6E05               	movwf	I2C_Read_Registers@u8Address^0,c
  2420  0011A8                     
  2421                           ;i2c.c: 147:     SSP1CON2bits.SEN = 1;
  2422  0011A8  80C5               	bsf	197,0,c	;volatile
  2423  0011AA                     l273:
  2424  0011AA  B0C5               	btfsc	197,0,c	;volatile
  2425  0011AC  EFDA  F008         	goto	u1131
  2426  0011B0  EFDC  F008         	goto	u1130
  2427  0011B4                     u1131:
  2428  0011B4  EFD5  F008         	goto	l273
  2429  0011B8                     u1130:
  2430  0011B8                     
  2431                           ;i2c.c: 150:     SSP1BUF = u8Address;
  2432  0011B8  C005  FFC9         	movff	I2C_Read_Registers@u8Address,4041	;volatile
  2433  0011BC                     
  2434                           ;i2c.c: 152:     PIR1bits.SSP1IF = 0;
  2435  0011BC  969E               	bcf	158,3,c	;volatile
  2436  0011BE                     l276:
  2437  0011BE  A69E               	btfss	158,3,c	;volatile
  2438  0011C0  EFE4  F008         	goto	u1141
  2439  0011C4  EFE6  F008         	goto	u1140
  2440  0011C8                     u1141:
  2441  0011C8  EFDF  F008         	goto	l276
  2442  0011CC                     u1140:
  2443  0011CC                     l279:
  2444  0011CC  BCC5               	btfsc	197,6,c	;volatile
  2445  0011CE  EFEB  F008         	goto	u1151
  2446  0011D2  EFED  F008         	goto	u1150
  2447  0011D6                     u1151:
  2448  0011D6  EFE6  F008         	goto	l279
  2449  0011DA                     u1150:
  2450  0011DA                     
  2451                           ;i2c.c: 157:     SSP1BUF = u8FirstRegister;
  2452  0011DA  C001  FFC9         	movff	I2C_Read_Registers@u8FirstRegister,4041	;volatile
  2453                           
  2454                           ;i2c.c: 159:     PIR1bits.SSP1IF = 0;
  2455  0011DE  969E               	bcf	158,3,c	;volatile
  2456  0011E0                     l282:
  2457  0011E0  A69E               	btfss	158,3,c	;volatile
  2458  0011E2  EFF5  F008         	goto	u1161
  2459  0011E6  EFF7  F008         	goto	u1160
  2460  0011EA                     u1161:
  2461  0011EA  EFF0  F008         	goto	l282
  2462  0011EE                     u1160:
  2463  0011EE                     l285:
  2464  0011EE  BCC5               	btfsc	197,6,c	;volatile
  2465  0011F0  EFFC  F008         	goto	u1171
  2466  0011F4  EFFE  F008         	goto	u1170
  2467  0011F8                     u1171:
  2468  0011F8  EFF7  F008         	goto	l285
  2469  0011FC                     u1170:
  2470  0011FC                     
  2471                           ;i2c.c: 165:     SSP1CON2bits.SEN = 1;
  2472  0011FC  80C5               	bsf	197,0,c	;volatile
  2473  0011FE                     l288:
  2474  0011FE  B0C5               	btfsc	197,0,c	;volatile
  2475  001200  EF04  F009         	goto	u1181
  2476  001204  EF06  F009         	goto	u1180
  2477  001208                     u1181:
  2478  001208  EFFF  F008         	goto	l288
  2479  00120C                     u1180:
  2480  00120C                     
  2481                           ;i2c.c: 168:     SSP1BUF = u8Address + 1;
  2482  00120C  2805               	incf	I2C_Read_Registers@u8Address^0,w,c
  2483  00120E  6EC9               	movwf	201,c	;volatile
  2484  001210                     
  2485                           ;i2c.c: 170:     PIR1bits.SSP1IF = 0;
  2486  001210  969E               	bcf	158,3,c	;volatile
  2487  001212                     l291:
  2488  001212  A69E               	btfss	158,3,c	;volatile
  2489  001214  EF0E  F009         	goto	u1191
  2490  001218  EF10  F009         	goto	u1190
  2491  00121C                     u1191:
  2492  00121C  EF09  F009         	goto	l291
  2493  001220                     u1190:
  2494  001220                     l294:
  2495  001220  BCC5               	btfsc	197,6,c	;volatile
  2496  001222  EF15  F009         	goto	u1201
  2497  001226  EF17  F009         	goto	u1200
  2498  00122A                     u1201:
  2499  00122A  EF10  F009         	goto	l294
  2500  00122E                     u1200:
  2501  00122E                     
  2502                           ;i2c.c: 175:     PIR1bits.SSP1IF = 0;
  2503  00122E  969E               	bcf	158,3,c	;volatile
  2504                           
  2505                           ;i2c.c: 177:     SSP1CON2bits.RCEN = 1;
  2506  001230  86C5               	bsf	197,3,c	;volatile
  2507  001232                     l297:
  2508  001232  A69E               	btfss	158,3,c	;volatile
  2509  001234  EF1E  F009         	goto	u1211
  2510  001238  EF20  F009         	goto	u1210
  2511  00123C                     u1211:
  2512  00123C  EF19  F009         	goto	l297
  2513  001240                     u1210:
  2514  001240                     
  2515                           ;i2c.c: 180:     *pu8Values = SSP1BUF;
  2516  001240  C003  FFD9         	movff	I2C_Read_Registers@pu8Values,fsr2l
  2517  001244  C004  FFDA         	movff	I2C_Read_Registers@pu8Values+1,fsr2h
  2518  001248  CFC9 FFDF          	movff	4041,indf2	;volatile
  2519  00124C                     
  2520                           ;i2c.c: 182:     PIR1bits.SSP1IF = 0;
  2521  00124C  969E               	bcf	158,3,c	;volatile
  2522  00124E                     
  2523                           ;i2c.c: 185:     for(u8Cpt=1; u8Cpt<u8NbRegister; u8Cpt++){
  2524  00124E  0E01               	movlw	1
  2525  001250  6E06               	movwf	I2C_Read_Registers@u8Cpt^0,c
  2526  001252  EF47  F009         	goto	l1932
  2527  001256                     l301:
  2528                           
  2529                           ;i2c.c: 186:         SSP1CON2bits.ACKDT = 0;
  2530  001256  9AC5               	bcf	197,5,c	;volatile
  2531                           
  2532                           ;i2c.c: 187:         SSP1CON2bits.ACKEN = 1;
  2533  001258  88C5               	bsf	197,4,c	;volatile
  2534  00125A                     l302:
  2535  00125A  A69E               	btfss	158,3,c	;volatile
  2536  00125C  EF32  F009         	goto	u1221
  2537  001260  EF34  F009         	goto	u1220
  2538  001264                     u1221:
  2539  001264  EF2D  F009         	goto	l302
  2540  001268                     u1220:
  2541  001268                     
  2542                           ;i2c.c: 190:         SSP1CON2bits.RCEN = 1;
  2543  001268  86C5               	bsf	197,3,c	;volatile
  2544                           
  2545                           ;i2c.c: 192:         PIR1bits.SSP1IF = 0;
  2546  00126A  969E               	bcf	158,3,c	;volatile
  2547  00126C                     l305:
  2548  00126C  A69E               	btfss	158,3,c	;volatile
  2549  00126E  EF3B  F009         	goto	u1231
  2550  001272  EF3D  F009         	goto	u1230
  2551  001276                     u1231:
  2552  001276  EF36  F009         	goto	l305
  2553  00127A                     u1230:
  2554  00127A                     
  2555                           ;i2c.c: 195:         *(pu8Values+u8Cpt) = SSP1BUF;
  2556  00127A  5006               	movf	I2C_Read_Registers@u8Cpt^0,w,c
  2557  00127C  2403               	addwf	I2C_Read_Registers@pu8Values^0,w,c
  2558  00127E  6ED9               	movwf	fsr2l,c
  2559  001280  0E00               	movlw	0
  2560  001282  2004               	addwfc	(I2C_Read_Registers@pu8Values+1)^0,w,c
  2561  001284  6EDA               	movwf	fsr2h,c
  2562  001286  CFC9 FFDF          	movff	4041,indf2	;volatile
  2563  00128A                     
  2564                           ;i2c.c: 197:         PIR1bits.SSP1IF = 0;
  2565  00128A  969E               	bcf	158,3,c	;volatile
  2566  00128C                     
  2567                           ;i2c.c: 198:     }
  2568  00128C  2A06               	incf	I2C_Read_Registers@u8Cpt^0,f,c
  2569  00128E                     l1932:
  2570  00128E  5002               	movf	I2C_Read_Registers@u8NbRegister^0,w,c
  2571  001290  5C06               	subwf	I2C_Read_Registers@u8Cpt^0,w,c
  2572  001292  A0D8               	btfss	status,0,c
  2573  001294  EF4E  F009         	goto	u1241
  2574  001298  EF50  F009         	goto	u1240
  2575  00129C                     u1241:
  2576  00129C  EF2B  F009         	goto	l301
  2577  0012A0                     u1240:
  2578  0012A0                     
  2579                           ;i2c.c: 200:     SSP1CON2bits.ACKDT = 1;
  2580  0012A0  8AC5               	bsf	197,5,c	;volatile
  2581                           
  2582                           ;i2c.c: 201:     SSP1CON2bits.ACKEN = 1;
  2583  0012A2  88C5               	bsf	197,4,c	;volatile
  2584  0012A4                     l309:
  2585  0012A4  A69E               	btfss	158,3,c	;volatile
  2586  0012A6  EF57  F009         	goto	u1251
  2587  0012AA  EF59  F009         	goto	u1250
  2588  0012AE                     u1251:
  2589  0012AE  EF52  F009         	goto	l309
  2590  0012B2                     u1250:
  2591  0012B2                     
  2592                           ;i2c.c: 204:     PIR1bits.SSP1IF = 0;
  2593  0012B2  969E               	bcf	158,3,c	;volatile
  2594                           
  2595                           ;i2c.c: 206:     SSP1CON2bits.PEN = 1;
  2596  0012B4  84C5               	bsf	197,2,c	;volatile
  2597  0012B6                     l312:
  2598  0012B6  A69E               	btfss	158,3,c	;volatile
  2599  0012B8  EF60  F009         	goto	u1261
  2600  0012BC  EF62  F009         	goto	u1260
  2601  0012C0                     u1261:
  2602  0012C0  EF5B  F009         	goto	l312
  2603  0012C4                     u1260:
  2604  0012C4                     
  2605                           ;i2c.c: 208:     PIR1bits.SSP1IF = 0;
  2606  0012C4  969E               	bcf	158,3,c	;volatile
  2607  0012C6  0012               	return		;funcret
  2608  0012C8                     __end_of_I2C_Read_Registers:
  2609                           	callstack 0
  2610                           
  2611 ;; *************** function _I2C_Read_Register *****************
  2612 ;; Defined at:
  2613 ;;		line 81 in file "i2c.c"
  2614 ;; Parameters:    Size  Location     Type
  2615 ;;  u8Address       1    wreg     unsigned char 
  2616 ;;  u8Register      1    0[COMRAM] unsigned char 
  2617 ;; Auto vars:     Size  Location     Type
  2618 ;;  u8Address       1    2[COMRAM] unsigned char 
  2619 ;;  u8Value         1    1[COMRAM] unsigned char 
  2620 ;; Return value:  Size  Location     Type
  2621 ;;                  1    wreg      unsigned char 
  2622 ;; Registers used:
  2623 ;;		wreg, status,2, status,0
  2624 ;; Tracked objects:
  2625 ;;		On entry : 0/0
  2626 ;;		On exit  : 0/0
  2627 ;;		Unchanged: 0/0
  2628 ;; Data sizes:     COMRAM   BANK0   BANK1   BANK2   BANK3   BANK4   BANK5   BANK6   BANK7   BANK8   BANK9  BANK10  BANK1
      +1  BANK12  BANK13  BANK14  BANK15
  2629 ;;      Params:         1       0       0       0       0       0       0       0       0       0       0       0       
      +0       0       0       0       0
  2630 ;;      Locals:         2       0       0       0       0       0       0       0       0       0       0       0       
      +0       0       0       0       0
  2631 ;;      Temps:          0       0       0       0       0       0       0       0       0       0       0       0       
      +0       0       0       0       0
  2632 ;;      Totals:         3       0       0       0       0       0       0       0       0       0       0       0       
      +0       0       0       0       0
  2633 ;;Total ram usage:        3 bytes
  2634 ;; Hardware stack levels used: 1
  2635 ;; This function calls:
  2636 ;;		Nothing
  2637 ;; This function is called by:
  2638 ;;		_main
  2639 ;; This function uses a non-reentrant model
  2640 ;;
  2641                           
  2642                           	psect	text19
  2643  0013AA                     __ptext19:
  2644                           	callstack 0
  2645  0013AA                     _I2C_Read_Register:
  2646                           	callstack 30
  2647                           
  2648                           ;incstack = 0
  2649                           ;I2C_Read_Register@u8Address stored from wreg
  2650  0013AA  6E03               	movwf	I2C_Read_Register@u8Address^0,c
  2651  0013AC                     
  2652                           ;i2c.c: 85:     SSP1CON2bits.SEN = 1;
  2653  0013AC  80C5               	bsf	197,0,c	;volatile
  2654  0013AE                     l237:
  2655  0013AE  B0C5               	btfsc	197,0,c	;volatile
  2656  0013B0  EFDC  F009         	goto	u1021
  2657  0013B4  EFDE  F009         	goto	u1020
  2658  0013B8                     u1021:
  2659  0013B8  EFD7  F009         	goto	l237
  2660  0013BC                     u1020:
  2661  0013BC                     
  2662                           ;i2c.c: 88:     SSP1BUF = u8Address;
  2663  0013BC  C003  FFC9         	movff	I2C_Read_Register@u8Address,4041	;volatile
  2664  0013C0                     
  2665                           ;i2c.c: 90:     PIR1bits.SSP1IF = 0;
  2666  0013C0  969E               	bcf	158,3,c	;volatile
  2667  0013C2                     l240:
  2668  0013C2  A69E               	btfss	158,3,c	;volatile
  2669  0013C4  EFE6  F009         	goto	u1031
  2670  0013C8  EFE8  F009         	goto	u1030
  2671  0013CC                     u1031:
  2672  0013CC  EFE1  F009         	goto	l240
  2673  0013D0                     u1030:
  2674  0013D0                     l243:
  2675  0013D0  BCC5               	btfsc	197,6,c	;volatile
  2676  0013D2  EFED  F009         	goto	u1041
  2677  0013D6  EFEF  F009         	goto	u1040
  2678  0013DA                     u1041:
  2679  0013DA  EFE8  F009         	goto	l243
  2680  0013DE                     u1040:
  2681  0013DE                     
  2682                           ;i2c.c: 95:     SSP1BUF = u8Register;
  2683  0013DE  C001  FFC9         	movff	I2C_Read_Register@u8Register,4041	;volatile
  2684                           
  2685                           ;i2c.c: 97:     PIR1bits.SSP1IF = 0;
  2686  0013E2  969E               	bcf	158,3,c	;volatile
  2687  0013E4                     l246:
  2688  0013E4  A69E               	btfss	158,3,c	;volatile
  2689  0013E6  EFF7  F009         	goto	u1051
  2690  0013EA  EFF9  F009         	goto	u1050
  2691  0013EE                     u1051:
  2692  0013EE  EFF2  F009         	goto	l246
  2693  0013F2                     u1050:
  2694  0013F2                     l249:
  2695  0013F2  BCC5               	btfsc	197,6,c	;volatile
  2696  0013F4  EFFE  F009         	goto	u1061
  2697  0013F8  EF00  F00A         	goto	u1060
  2698  0013FC                     u1061:
  2699  0013FC  EFF9  F009         	goto	l249
  2700  001400                     u1060:
  2701  001400                     
  2702                           ;i2c.c: 103:     SSP1CON2bits.SEN = 1;
  2703  001400  80C5               	bsf	197,0,c	;volatile
  2704  001402                     l252:
  2705  001402  B0C5               	btfsc	197,0,c	;volatile
  2706  001404  EF06  F00A         	goto	u1071
  2707  001408  EF08  F00A         	goto	u1070
  2708  00140C                     u1071:
  2709  00140C  EF01  F00A         	goto	l252
  2710  001410                     u1070:
  2711  001410                     
  2712                           ;i2c.c: 106:     SSP1BUF = u8Address + 1;
  2713  001410  2803               	incf	I2C_Read_Register@u8Address^0,w,c
  2714  001412  6EC9               	movwf	201,c	;volatile
  2715  001414                     
  2716                           ;i2c.c: 108:     PIR1bits.SSP1IF = 0;
  2717  001414  969E               	bcf	158,3,c	;volatile
  2718  001416                     l255:
  2719  001416  A69E               	btfss	158,3,c	;volatile
  2720  001418  EF10  F00A         	goto	u1081
  2721  00141C  EF12  F00A         	goto	u1080
  2722  001420                     u1081:
  2723  001420  EF0B  F00A         	goto	l255
  2724  001424                     u1080:
  2725  001424                     l258:
  2726  001424  BCC5               	btfsc	197,6,c	;volatile
  2727  001426  EF17  F00A         	goto	u1091
  2728  00142A  EF19  F00A         	goto	u1090
  2729  00142E                     u1091:
  2730  00142E  EF12  F00A         	goto	l258
  2731  001432                     u1090:
  2732  001432                     
  2733                           ;i2c.c: 113:     PIR1bits.SSP1IF = 0;
  2734  001432  969E               	bcf	158,3,c	;volatile
  2735                           
  2736                           ;i2c.c: 115:     SSP1CON2bits.RCEN = 1;
  2737  001434  86C5               	bsf	197,3,c	;volatile
  2738  001436                     l261:
  2739  001436  A69E               	btfss	158,3,c	;volatile
  2740  001438  EF20  F00A         	goto	u1101
  2741  00143C  EF22  F00A         	goto	u1100
  2742  001440                     u1101:
  2743  001440  EF1B  F00A         	goto	l261
  2744  001444                     u1100:
  2745  001444                     
  2746                           ;i2c.c: 118:     u8Value = SSP1BUF;
  2747  001444  CFC9 F002          	movff	4041,I2C_Read_Register@u8Value	;volatile
  2748                           
  2749                           ;i2c.c: 120:     PIR1bits.SSP1IF = 0;
  2750  001448  969E               	bcf	158,3,c	;volatile
  2751                           
  2752                           ;i2c.c: 122:     SSP1CON2bits.ACKDT = 1;
  2753  00144A  8AC5               	bsf	197,5,c	;volatile
  2754                           
  2755                           ;i2c.c: 123:     SSP1CON2bits.ACKEN = 1;
  2756  00144C  88C5               	bsf	197,4,c	;volatile
  2757  00144E                     l264:
  2758  00144E  A69E               	btfss	158,3,c	;volatile
  2759  001450  EF2C  F00A         	goto	u1111
  2760  001454  EF2E  F00A         	goto	u1110
  2761  001458                     u1111:
  2762  001458  EF27  F00A         	goto	l264
  2763  00145C                     u1110:
  2764  00145C                     
  2765                           ;i2c.c: 126:     PIR1bits.SSP1IF = 0;
  2766  00145C  969E               	bcf	158,3,c	;volatile
  2767                           
  2768                           ;i2c.c: 128:     SSP1CON2bits.PEN = 1;
  2769  00145E  84C5               	bsf	197,2,c	;volatile
  2770  001460                     l267:
  2771  001460  A69E               	btfss	158,3,c	;volatile
  2772  001462  EF35  F00A         	goto	u1121
  2773  001466  EF37  F00A         	goto	u1120
  2774  00146A                     u1121:
  2775  00146A  EF30  F00A         	goto	l267
  2776  00146E                     u1120:
  2777  00146E                     
  2778                           ;i2c.c: 130:     PIR1bits.SSP1IF = 0;
  2779  00146E  969E               	bcf	158,3,c	;volatile
  2780  001470                     
  2781                           ;i2c.c: 132:     return u8Value;
  2782  001470  5002               	movf	I2C_Read_Register@u8Value^0,w,c
  2783  001472  0012               	return		;funcret
  2784  001474                     __end_of_I2C_Read_Register:
  2785                           	callstack 0
  2786                           
  2787 ;; *************** function _I2C_Initialize *****************
  2788 ;; Defined at:
  2789 ;;		line 27 in file "i2c.c"
  2790 ;; Parameters:    Size  Location     Type
  2791 ;;		None
  2792 ;; Auto vars:     Size  Location     Type
  2793 ;;		None
  2794 ;; Return value:  Size  Location     Type
  2795 ;;                  1    wreg      void 
  2796 ;; Registers used:
  2797 ;;		wreg, status,2
  2798 ;; Tracked objects:
  2799 ;;		On entry : 0/0
  2800 ;;		On exit  : 0/0
  2801 ;;		Unchanged: 0/0
  2802 ;; Data sizes:     COMRAM   BANK0   BANK1   BANK2   BANK3   BANK4   BANK5   BANK6   BANK7   BANK8   BANK9  BANK10  BANK1
      +1  BANK12  BANK13  BANK14  BANK15
  2803 ;;      Params:         0       0       0       0       0       0       0       0       0       0       0       0       
      +0       0       0       0       0
  2804 ;;      Locals:         0       0       0       0       0       0       0       0       0       0       0       0       
      +0       0       0       0       0
  2805 ;;      Temps:          0       0       0       0       0       0       0       0       0       0       0       0       
      +0       0       0       0       0
  2806 ;;      Totals:         0       0       0       0       0       0       0       0       0       0       0       0       
      +0       0       0       0       0
  2807 ;;Total ram usage:        0 bytes
  2808 ;; Hardware stack levels used: 1
  2809 ;; This function calls:
  2810 ;;		Nothing
  2811 ;; This function is called by:
  2812 ;;		_main
  2813 ;; This function uses a non-reentrant model
  2814 ;;
  2815                           
  2816                           	psect	text20
  2817  0018EA                     __ptext20:
  2818                           	callstack 0
  2819  0018EA                     _I2C_Initialize:
  2820                           	callstack 30
  2821  0018EA                     
  2822                           ;i2c.c: 28:     SSP1STAT = 0x00;
  2823  0018EA  0E00               	movlw	0
  2824  0018EC  6EC7               	movwf	199,c	;volatile
  2825                           
  2826                           ;i2c.c: 29:     SSP1CON1 = 0x00;
  2827  0018EE  0E00               	movlw	0
  2828  0018F0  6EC6               	movwf	198,c	;volatile
  2829                           
  2830                           ;i2c.c: 30:     SSP1CON1bits.SSPM = 0x08;
  2831  0018F2  50C6               	movf	198,w,c	;volatile
  2832  0018F4  0BF0               	andlw	-16
  2833  0018F6  0908               	iorlw	8
  2834  0018F8  6EC6               	movwf	198,c	;volatile
  2835                           
  2836                           ;i2c.c: 31:     SSP1CON2 = 0x00;
  2837  0018FA  0E00               	movlw	0
  2838  0018FC  6EC5               	movwf	197,c	;volatile
  2839                           
  2840                           ;i2c.c: 32:     SSP1ADD = 0x77;
  2841  0018FE  0E77               	movlw	119
  2842  001900  6EC8               	movwf	200,c	;volatile
  2843  001902                     
  2844                           ;i2c.c: 33:     SSP1CON1bits.SSPEN = 1;
  2845  001902  8AC6               	bsf	198,5,c	;volatile
  2846  001904  0012               	return		;funcret
  2847  001906                     __end_of_I2C_Initialize:
  2848                           	callstack 0
  2849                           
  2850 ;; *************** function _EEP_SPI_Initialize *****************
  2851 ;; Defined at:
  2852 ;;		line 26 in file "eep_spi.c"
  2853 ;; Parameters:    Size  Location     Type
  2854 ;;		None
  2855 ;; Auto vars:     Size  Location     Type
  2856 ;;		None
  2857 ;; Return value:  Size  Location     Type
  2858 ;;                  1    wreg      void 
  2859 ;; Registers used:
  2860 ;;		None
  2861 ;; Tracked objects:
  2862 ;;		On entry : 0/0
  2863 ;;		On exit  : 0/0
  2864 ;;		Unchanged: 0/0
  2865 ;; Data sizes:     COMRAM   BANK0   BANK1   BANK2   BANK3   BANK4   BANK5   BANK6   BANK7   BANK8   BANK9  BANK10  BANK1
      +1  BANK12  BANK13  BANK14  BANK15
  2866 ;;      Params:         0       0       0       0       0       0       0       0       0       0       0       0       
      +0       0       0       0       0
  2867 ;;      Locals:         0       0       0       0       0       0       0       0       0       0       0       0       
      +0       0       0       0       0
  2868 ;;      Temps:          0       0       0       0       0       0       0       0       0       0       0       0       
      +0       0       0       0       0
  2869 ;;      Totals:         0       0       0       0       0       0       0       0       0       0       0       0       
      +0       0       0       0       0
  2870 ;;Total ram usage:        0 bytes
  2871 ;; Hardware stack levels used: 1
  2872 ;; This function calls:
  2873 ;;		Nothing
  2874 ;; This function is called by:
  2875 ;;		_main
  2876 ;; This function uses a non-reentrant model
  2877 ;;
  2878                           
  2879                           	psect	text21
  2880  001950                     __ptext21:
  2881                           	callstack 0
  2882  001950                     _EEP_SPI_Initialize:
  2883                           	callstack 30
  2884  001950  0012               	return		;funcret
  2885  001952                     __end_of_EEP_SPI_Initialize:
  2886                           	callstack 0
  2887                           
  2888                           	psect	rparam
  2889  0000                     
  2890                           	psect	idloc
  2891                           
  2892                           ;Config register IDLOC0 @ 0x200000
  2893                           ;	unspecified, using default values
  2894  200000                     	org	2097152
  2895  200000  FF                 	db	255
  2896                           
  2897                           ;Config register IDLOC1 @ 0x200001
  2898                           ;	unspecified, using default values
  2899  200001                     	org	2097153
  2900  200001  FF                 	db	255
  2901                           
  2902                           ;Config register IDLOC2 @ 0x200002
  2903                           ;	unspecified, using default values
  2904  200002                     	org	2097154
  2905  200002  FF                 	db	255
  2906                           
  2907                           ;Config register IDLOC3 @ 0x200003
  2908                           ;	unspecified, using default values
  2909  200003                     	org	2097155
  2910  200003  FF                 	db	255
  2911                           
  2912                           ;Config register IDLOC4 @ 0x200004
  2913                           ;	unspecified, using default values
  2914  200004                     	org	2097156
  2915  200004  FF                 	db	255
  2916                           
  2917                           ;Config register IDLOC5 @ 0x200005
  2918                           ;	unspecified, using default values
  2919  200005                     	org	2097157
  2920  200005  FF                 	db	255
  2921                           
  2922                           ;Config register IDLOC6 @ 0x200006
  2923                           ;	unspecified, using default values
  2924  200006                     	org	2097158
  2925  200006  FF                 	db	255
  2926                           
  2927                           ;Config register IDLOC7 @ 0x200007
  2928                           ;	unspecified, using default values
  2929  200007                     	org	2097159
  2930  200007  FF                 	db	255
  2931                           
  2932                           	psect	config
  2933                           
  2934                           ;Config register CONFIG1L @ 0x300000
  2935                           ;	VREG Sleep Enable bit
  2936                           ;	RETEN = ON, Enabled
  2937                           ;	LF-INTOSC Low-power Enable bit
  2938                           ;	INTOSCSEL = HIGH, LF-INTOSC in High-power mode during Sleep
  2939                           ;	SOSC Power Selection and mode Configuration bits
  2940                           ;	SOSCSEL = DIG, Digital (SCLKI) mode
  2941                           ;	Extended Instruction Set
  2942                           ;	XINST = OFF, Disabled
  2943  300000                     	org	3145728
  2944  300000  15                 	db	21
  2945                           
  2946                           ;Config register CONFIG1H @ 0x300001
  2947                           ;	Oscillator
  2948                           ;	FOSC = HS1, HS oscillator (Medium power, 4 MHz - 16 MHz)
  2949                           ;	PLL x4 Enable bit
  2950                           ;	PLLCFG = ON, Enabled
  2951                           ;	Fail-Safe Clock Monitor
  2952                           ;	FCMEN = OFF, Disabled
  2953                           ;	Internal External Oscillator Switch Over Mode
  2954                           ;	IESO = OFF, Disabled
  2955  300001                     	org	3145729
  2956  300001  13                 	db	19
  2957                           
  2958                           ;Config register CONFIG2L @ 0x300002
  2959                           ;	Power Up Timer
  2960                           ;	PWRTEN = OFF, Disabled
  2961                           ;	Brown Out Detect
  2962                           ;	BOREN = OFF, Disabled in hardware, SBOREN disabled
  2963                           ;	Brown-out Reset Voltage bits
  2964                           ;	BORV = 0, 3.0V
  2965                           ;	BORMV Power level
  2966                           ;	BORPWR = ZPBORMV, ZPBORMV instead of BORMV is selected
  2967  300002                     	org	3145730
  2968  300002  61                 	db	97
  2969                           
  2970                           ;Config register CONFIG2H @ 0x300003
  2971                           ;	Watchdog Timer
  2972                           ;	WDTEN = OFF, WDT disabled in hardware; SWDTEN bit disabled
  2973                           ;	Watchdog Postscaler
  2974                           ;	WDTPS = 1, 1:1
  2975  300003                     	org	3145731
  2976  300003  00                 	db	0
  2977                           
  2978                           ;Config register CONFIG3L @ 0x300004
  2979                           ;	RTCC Clock Select
  2980                           ;	RTCOSC = INTOSCREF, RTCC uses INTRC
  2981                           ;	External Address Shift bit
  2982                           ;	EASHFT = OFF, Address Shifting disabled
  2983                           ;	Address Bus Width Select bits
  2984                           ;	ABW = MM, 8-bit address bus
  2985                           ;	Data Bus Width
  2986                           ;	BW = 8, 8-bit external bus mode
  2987                           ;	External Bus Wait
  2988                           ;	WAIT = ON, Enabled
  2989  300004                     	org	3145732
  2990  300004  30                 	db	48
  2991                           
  2992                           ;Config register CONFIG3H @ 0x300005
  2993                           ;	CCP2 Mux
  2994                           ;	CCP2MX = PORTBE, RE7-Microcontroller Mode/RB3-All other modes
  2995                           ;	ECCP Mux
  2996                           ;	ECCPMX = PORTH, Enhanced CCP1/3 [P1B/P1C/P3B/P3C] muxed with RH7/RH6/RH5/RH4
  2997                           ;	MSSP address masking
  2998                           ;	MSSPMSK = MSK5, 5 bit address masking mode
  2999                           ;	Master Clear Enable
  3000                           ;	MCLRE = ON, MCLR Enabled, RG5 Disabled
  3001  300005                     	org	3145733
  3002  300005  80                 	db	128
  3003                           
  3004                           ;Config register CONFIG4L @ 0x300006
  3005                           ;	Stack Overflow Reset
  3006                           ;	STVREN = ON, Enabled
  3007                           ;	Boot Block Size
  3008                           ;	BBSIZ = BB1K, 1K word Boot Block size
  3009                           ;	Background Debug
  3010                           ;	DEBUG = OFF, Disabled
  3011  300006                     	org	3145734
  3012  300006  81                 	db	129
  3013                           
  3014                           ; Padding undefined space
  3015  300007                     	org	3145735
  3016  300007  FF                 	db	255
  3017                           
  3018                           ;Config register CONFIG5L @ 0x300008
  3019                           ;	Code Protect 00800-03FFF
  3020                           ;	CP0 = OFF, Disabled
  3021                           ;	Code Protect 04000-07FFF
  3022                           ;	CP1 = OFF, Disabled
  3023                           ;	Code Protect 08000-0BFFF
  3024                           ;	CP2 = OFF, Disabled
  3025                           ;	Code Protect 0C000-0FFFF
  3026                           ;	CP3 = OFF, Disabled
  3027                           ;	Code Protect 10000-13FFF
  3028                           ;	CP4 = OFF, Disabled
  3029                           ;	Code Protect 14000-17FFF
  3030                           ;	CP5 = OFF, Disabled
  3031                           ;	Code Protect 18000-1BFFF
  3032                           ;	CP6 = OFF, Disabled
  3033                           ;	Code Protect 1C000-1FFFF
  3034                           ;	CP7 = OFF, Disabled
  3035  300008                     	org	3145736
  3036  300008  FF                 	db	255
  3037                           
  3038                           ;Config register CONFIG5H @ 0x300009
  3039                           ;	Code Protect Boot
  3040                           ;	CPB = OFF, Disabled
  3041                           ;	Data EE Read Protect
  3042                           ;	CPD = OFF, Disabled
  3043  300009                     	org	3145737
  3044  300009  C0                 	db	192
  3045                           
  3046                           ;Config register CONFIG6L @ 0x30000A
  3047                           ;	Table Write Protect 00800-03FFF
  3048                           ;	WRT0 = OFF, Disabled
  3049                           ;	Table Write Protect 04000-07FFF
  3050                           ;	WRT1 = OFF, Disabled
  3051                           ;	Table Write Protect 08000-0BFFF
  3052                           ;	WRT2 = OFF, Disabled
  3053                           ;	Table Write Protect 0C000-0FFFF
  3054                           ;	WRT3 = OFF, Disabled
  3055                           ;	Table Write Protect 10000-13FFF
  3056                           ;	WRT4 = OFF, Disabled
  3057                           ;	Table Write Protect 14000-17FFF
  3058                           ;	WRT5 = OFF, Disabled
  3059                           ;	Table Write Protect 18000-1BFFF
  3060                           ;	WRT6 = OFF, Disabled
  3061                           ;	Table Write Protect 1C000-1FFFF
  3062                           ;	WRT7 = OFF, Disabled
  3063  30000A                     	org	3145738
  3064  30000A  FF                 	db	255
  3065                           
  3066                           ;Config register CONFIG6H @ 0x30000B
  3067                           ;	Config. Write Protect
  3068                           ;	WRTC = OFF, Disabled
  3069                           ;	Table Write Protect Boot
  3070                           ;	WRTB = OFF, Disabled
  3071                           ;	Data EE Write Protect
  3072                           ;	WRTD = OFF, Disabled
  3073  30000B                     	org	3145739
  3074  30000B  E0                 	db	224
  3075                           
  3076                           ;Config register CONFIG7L @ 0x30000C
  3077                           ;	Table Read Protect 00800-03FFF
  3078                           ;	EBRT0 = OFF, Disabled
  3079                           ;	Table Read Protect 04000-07FFF
  3080                           ;	EBRT1 = OFF, Disabled
  3081                           ;	Table Read Protect 08000-0BFFF
  3082                           ;	EBRT2 = OFF, Disabled
  3083                           ;	Table Read Protect 0C000-0FFFF
  3084                           ;	EBRT3 = OFF, Disabled
  3085                           ;	Table Read Protect 10000-13FFF
  3086                           ;	EBRT4 = OFF, Disabled
  3087                           ;	Table Read Protect 14000-17FFF
  3088                           ;	EBRT5 = OFF, Disabled
  3089                           ;	Table Read Protect 18000-1BFFF
  3090                           ;	EBRT6 = OFF, Disabled
  3091                           ;	Table Read Protect 1C000-1FFFF
  3092                           ;	EBRT7 = OFF, Disabled
  3093  30000C                     	org	3145740
  3094  30000C  FF                 	db	255
  3095                           
  3096                           ;Config register CONFIG7H @ 0x30000D
  3097                           ;	Table Read Protect Boot
  3098                           ;	EBRTB = OFF, Disabled
  3099  30000D                     	org	3145741
  3100  30000D  40                 	db	64
  3101                           tosu	equ	0xFFF
  3102                           tosh	equ	0xFFE
  3103                           tosl	equ	0xFFD
  3104                           stkptr	equ	0xFFC
  3105                           pclatu	equ	0xFFB
  3106                           pclath	equ	0xFFA
  3107                           pcl	equ	0xFF9
  3108                           tblptru	equ	0xFF8
  3109                           tblptrh	equ	0xFF7
  3110                           tblptrl	equ	0xFF6
  3111                           tablat	equ	0xFF5
  3112                           prodh	equ	0xFF4
  3113                           prodl	equ	0xFF3
  3114                           indf0	equ	0xFEF
  3115                           postinc0	equ	0xFEE
  3116                           postdec0	equ	0xFED
  3117                           preinc0	equ	0xFEC
  3118                           plusw0	equ	0xFEB
  3119                           fsr0h	equ	0xFEA
  3120                           fsr0l	equ	0xFE9
  3121                           wreg	equ	0xFE8
  3122                           indf1	equ	0xFE7
  3123                           postinc1	equ	0xFE6
  3124                           postdec1	equ	0xFE5
  3125                           preinc1	equ	0xFE4
  3126                           plusw1	equ	0xFE3
  3127                           fsr1h	equ	0xFE2
  3128                           fsr1l	equ	0xFE1
  3129                           bsr	equ	0xFE0
  3130                           indf2	equ	0xFDF
  3131                           postinc2	equ	0xFDE
  3132                           postdec2	equ	0xFDD
  3133                           preinc2	equ	0xFDC
  3134                           plusw2	equ	0xFDB
  3135                           fsr2h	equ	0xFDA
  3136                           fsr2l	equ	0xFD9
  3137                           status	equ	0xFD8

Data Sizes:
    Strings     95
    Constant    0
    Data        1
    BSS         8
    Persistent  0
    Stack       0

Auto Spaces:
    Space          Size  Autos    Used
    COMRAM           95     14      23
    BANK0           160      0       0
    BANK1           256      0       0
    BANK2           256      0       0
    BANK3           256      0       0
    BANK4           256      0       0
    BANK5           256      0       0
    BANK6           256      0       0
    BANK7           256      0       0
    BANK8           256      0       0
    BANK9           256      0       0
    BANK10          256      0       0
    BANK11          256      0       0
    BANK12          256      0       0
    BANK13          256      0       0
    BANK14          256      0       0
    BANK15           22      0       0

Pointer List with Targets:

    I2C_Read_Registers@pu8Values	PTR unsigned char  size(2) Largest target is 3
		 -> u8EventCounter(COMRAM[3]), 

    draw_string@tableau	PTR unsigned char  size(2) Largest target is 53
		 -> STR_4(CODE[53]), STR_3(CODE[36]), STR_2(CODE[6]), STR_1(CODE[6]), 


Critical Paths under _main in COMRAM

    _main->_goto_lico
    _initialisation_afficheur->_d2command
    _command->_wait_status_ok
    _goto_lico->_d2command
    _draw_string->_d1command
    _draw_hex8->_d1command
    _clear_text->_d2command
    _clear_graphics->_d2command
    _d2command->_wait_status_ok
    _d1command->_wait_status_ok
    _wait_status_ok->_delai_us_char

Critical Paths under _main in BANK0

    None.

Critical Paths under _main in BANK1

    None.

Critical Paths under _main in BANK2

    None.

Critical Paths under _main in BANK3

    None.

Critical Paths under _main in BANK4

    None.

Critical Paths under _main in BANK5

    None.

Critical Paths under _main in BANK6

    None.

Critical Paths under _main in BANK7

    None.

Critical Paths under _main in BANK8

    None.

Critical Paths under _main in BANK9

    None.

Critical Paths under _main in BANK10

    None.

Critical Paths under _main in BANK11

    None.

Critical Paths under _main in BANK12

    None.

Critical Paths under _main in BANK13

    None.

Critical Paths under _main in BANK14

    None.

Critical Paths under _main in BANK15

    None.

Call Graph Tables:

 ---------------------------------------------------------------------------------
 (Depth) Function   	        Calls       Base Space   Used Autos Params    Refs
 ---------------------------------------------------------------------------------
 (0) _main                                                 0     0      0   15825
                 _EEP_SPI_Initialize
                     _I2C_Initialize
                  _I2C_Read_Register
                 _I2C_Read_Registers
                 _I2C_Write_Register
                     _SPI_Initialize
                     _clear_graphics
                         _clear_text
                          _draw_hex8
                        _draw_string
                          _goto_lico
           _initialisation_afficheur
           _initialisation_des_ports
 ---------------------------------------------------------------------------------
 (1) _initialisation_des_ports                             0     0      0       0
 ---------------------------------------------------------------------------------
 (1) _initialisation_afficheur                             1     1      0    3222
                                              8 COMRAM     1     1      0
                    _check_status_ok
                            _command
                          _d1command
                          _d2command
                      _delai_us_char
 ---------------------------------------------------------------------------------
 (2) _command                                              2     2      0     140
                                              4 COMRAM     1     1      0
                      _delai_us_char
                     _wait_status_ok
                        _write_c_aff
 ---------------------------------------------------------------------------------
 (2) _check_status_ok                                      1     1      0      30
                                              0 COMRAM     1     1      0
 ---------------------------------------------------------------------------------
 (1) _goto_lico                                            6     5      1    2815
                                              8 COMRAM     6     5      1
                          _d2command
 ---------------------------------------------------------------------------------
 (1) _draw_string                                          2     0      2    1160
                                              7 COMRAM     2     0      2
                          _d1command
 ---------------------------------------------------------------------------------
 (1) _draw_hex8                                            2     2      0    1037
                                              7 COMRAM     2     2      0
                          _d1command
 ---------------------------------------------------------------------------------
 (1) _clear_text                                           2     2      0    3058
                                              8 COMRAM     2     2      0
                          _d1command
                          _d2command
 ---------------------------------------------------------------------------------
 (1) _clear_graphics                                       2     2      0    3058
                                              8 COMRAM     2     2      0
                          _d1command
                          _d2command
 ---------------------------------------------------------------------------------
 (2) _d2command                                            4     2      2    2201
                                              4 COMRAM     4     2      2
                      _delai_us_char
                     _wait_status_ok
                        _write_c_aff
                        _write_d_aff
 ---------------------------------------------------------------------------------
 (2) _d1command                                            3     2      1     811
                                              4 COMRAM     3     2      1
                      _delai_us_char
                     _wait_status_ok
                        _write_c_aff
                        _write_d_aff
 ---------------------------------------------------------------------------------
 (3) _write_d_aff                                          1     1      0      15
                                              0 COMRAM     1     1      0
 ---------------------------------------------------------------------------------
 (3) _write_c_aff                                          1     1      0      15
                                              0 COMRAM     1     1      0
 ---------------------------------------------------------------------------------
 (3) _wait_status_ok                                       3     3      0      90
                                              1 COMRAM     3     3      0
                      _delai_us_char
 ---------------------------------------------------------------------------------
 (2) _delai_us_char                                        1     1      0      15
                                              0 COMRAM     1     1      0
 ---------------------------------------------------------------------------------
 (1) _SPI_Initialize                                       0     0      0       0
 ---------------------------------------------------------------------------------
 (1) _I2C_Write_Register                                   3     1      2     674
                                              0 COMRAM     3     1      2
 ---------------------------------------------------------------------------------
 (1) _I2C_Read_Registers                                   6     2      4     635
                                              0 COMRAM     6     2      4
 ---------------------------------------------------------------------------------
 (1) _I2C_Read_Register                                    3     2      1     166
                                              0 COMRAM     3     2      1
 ---------------------------------------------------------------------------------
 (1) _I2C_Initialize                                       0     0      0       0
 ---------------------------------------------------------------------------------
 (1) _EEP_SPI_Initialize                                   0     0      0       0
 ---------------------------------------------------------------------------------
 Estimated maximum stack depth 3
 ---------------------------------------------------------------------------------

 Call Graph Graphs:

 _main (ROOT)
   _EEP_SPI_Initialize
   _I2C_Initialize
   _I2C_Read_Register
   _I2C_Read_Registers
   _I2C_Write_Register
   _SPI_Initialize
   _clear_graphics
     _d1command
       _delai_us_char
       _wait_status_ok
         _delai_us_char
       _write_c_aff
       _write_d_aff
     _d2command
       _delai_us_char
       _wait_status_ok
       _write_c_aff
       _write_d_aff
   _clear_text
     _d1command
     _d2command
   _draw_hex8
     _d1command
   _draw_string
     _d1command
   _goto_lico
     _d2command
   _initialisation_afficheur
     _check_status_ok
     _command
       _delai_us_char
       _wait_status_ok
       _write_c_aff
     _d1command
     _d2command
     _delai_us_char
   _initialisation_des_ports

 Address spaces:
Name               Size   Autos  Total    Cost      Usage
BIGRAM             F15      0       0      53        0.0%
EEDATA             400      0       0       0        0.0%
BITBANK14          100      0       0      32        0.0%
BANK14             100      0       0      33        0.0%
BITBANK13          100      0       0      30        0.0%
BANK13             100      0       0      31        0.0%
BITBANK12          100      0       0      28        0.0%
BANK12             100      0       0      29        0.0%
BITBANK11          100      0       0      26        0.0%
BANK11             100      0       0      27        0.0%
BITBANK10          100      0       0      24        0.0%
BANK10             100      0       0      25        0.0%
BITBANK9           100      0       0      22        0.0%
BANK9              100      0       0      23        0.0%
BITBANK8           100      0       0      20        0.0%
BANK8              100      0       0      21        0.0%
BITBANK7           100      0       0      18        0.0%
BANK7              100      0       0      19        0.0%
BITBANK6           100      0       0      16        0.0%
BANK6              100      0       0      17        0.0%
BITBANK5           100      0       0      14        0.0%
BANK5              100      0       0      15        0.0%
BITBANK4           100      0       0      12        0.0%
BANK4              100      0       0      13        0.0%
BITBANK3           100      0       0      10        0.0%
BANK3              100      0       0      11        0.0%
BITBANK2           100      0       0       8        0.0%
BANK2              100      0       0       9        0.0%
BITBANK1           100      0       0       6        0.0%
BANK1              100      0       0       7        0.0%
BITBANK0            A0      0       0       4        0.0%
BANK0               A0      0       0       5        0.0%
BITCOMRAM           5F      0       0       0        0.0%
COMRAM              5F      E      17       1       24.2%
BITBIGSFRllhl       2C      0       0      50        0.0%
BITBIGSFRhhhl       27      0       0      37        0.0%
BITBIGSFRhhlhh      23      0       0      38        0.0%
BITBIGSFRllhhlh     17      0       0      47        0.0%
BITBANK15           16      0       0      34        0.0%
BANK15              16      0       0      35        0.0%
BITBIGSFRllhhll     13      0       0      49        0.0%
BITBIGSFRhhhh        E      0       0      36        0.0%
BITBIGSFRlll         D      0       0      51        0.0%
BITBIGSFRllhhh       3      0       0      46        0.0%
BITBIGSFRhhll        3      0       0      40        0.0%
BITBIGSFRhhlhl       2      0       0      39        0.0%
BITBIGSFRlhh         2      0       0      43        0.0%
BITBIGSFRllhhlh      1      0       0      48        0.0%
BITBIGSFRlhlh        1      0       0      44        0.0%
BITBIGSFRhlh         1      0       0      41        0.0%
BITBIGSFRlhll        1      0       0      45        0.0%
BITBIGSFRhll         1      0       0      42        0.0%
BIGSFR               0      0       0     200        0.0%
BITSFR_1             0      0       0     200        0.0%
SFR_1                0      0       0     200        0.0%
BITSFR               0      0       0     200        0.0%
SFR                  0      0       0     200        0.0%
STACK                0      0       0       2        0.0%
NULL                 0      0       0       0        0.0%
ABS                  0      0      17      52        0.0%
DATA                 0      0      17       3        0.0%
CODE                 0      0       0       0        0.0%


Microchip Technology PIC18 Macro Assembler V2.36 build 20220127204148 
Symbol Table                                                                                   Fri Feb 10 14:09:01 2023

                     _SPI_Initialize 193A            ?_initialisation_des_ports 0001  
                                 l30 17C8                                   l23 191E  
                                 l31 17CA                                   l40 167E  
                                 l26 1938                                   l35 1616  
                                 l44 18E8                                   l61 18A0  
                                 l55 16EC                                   l49 1790  
                                 l82 16F2                                   l59 187A  
                                 l91 14A0                                   l68 13A8  
                                 l85 1742                                   l96 14E6  
                                 l98 1502                                   u10 18A0  
                                 u11 189C                                   u20 1640  
                                 u21 163C                                   u30 1658  
                                 u31 1654                                   u40 167C  
                                 u41 1678                                   u50 17BC  
                                 u51 17B8                                   u60 18DC  
                                 u61 18D8                                  l111 1804  
                                l104 15E8                                  l210 1508  
                                l106 1608                                  l116 183E  
                                l301 1256                                  l213 151C  
                                l302 125A                                  l230 157C  
                                l222 154C                                  l207 1904  
                                l311 12B2                                  l231 1580  
                                l160 1950                                  l240 13C2  
                                l312 12B6                                  l304 1268  
                                l224 155A                                  l216 152A  
                                l305 126C                                  l233 158E  
                                l225 1560                                  l314 12C4  
                                l234 1590                                  l218 1538  
                                l251 1400                                  l243 13D0  
                                l315 12C6                                  l219 153E  
                                l260 1432                                  l252 1402  
                                l308 12A0                                  l228 156E  
                                l261 1436                                  l245 13DE  
                                l237 13AE                                  l309 12A4  
                                l270 1472                                  l246 13E4  
                                l263 1444                                  l255 1416  
                                l264 144E                                  l249 13F2  
                                l281 11DA                                  l273 11AA  
                                l409 194E                                  l266 145C  
                                l258 1424                                  l282 11E0  
                                l267 1460                                  l291 1212  
                                l276 11BE                                  l269 146E  
                                l285 11EE                                  l294 1220  
                                l287 11FC                                  l279 11CC  
                                l383 114C                                  l296 122E  
                                l288 11FE                                  l376 1872  
                                l297 1232                         ?_draw_string 0008  
                                u800 16DA                                  u801 16D6  
                                u810 130C                                  u811 1308  
                                u900 15C0                                  u820 132A  
                                u901 15BC                                  u821 1326  
                                u830 171E                                  u910 1608  
                                u831 171A                                  u911 1604  
                                u760 175E                                  u920 1804  
                                u840 1742                                  u761 175A  
                                u921 1800                                  u841 173E  
                                u770 177E                                  u930 183E  
                                u850 148C                                  u771 177A  
                                u931 183A                                  u851 1488  
                                u940 1516                                  u780 169A  
                                u860 14BC                                  u941 1512  
                                u781 1696                                  u861 14B8  
                                u950 152A                                  u790 16BA  
                                u870 14D2                                  u951 1526  
                                u791 16B6                                  u871 14CE  
                                u960 1538                                  u880 1502  
                                u961 1534                                  u881 14FE  
                                u970 154C                                  u890 15AC  
                                u971 1548                                  u891 15A8  
                                u980 155A                                  u981 1556  
                                u990 156E                                  u991 156A  
                                wreg 000FE8       I2C_Read_Registers@u8NbRegister 0002  
                               l2000 1072                                 l1202 1792  
                               l2010 1094                                 l2002 1076  
                               l1140 188E                                 l1204 17A8  
                               l1220 18E8                                 l1212 18C8  
                               l2020 10E4                                 l2012 10A2  
                               l2004 107A                                 l1142 1890  
                               l1150 1912                                 l1206 17BC  
                               l1214 18C8                                 l2030 110E  
                               l2022 10EE                                 l2014 10B8  
                               l2006 107E                                 l1160 191C  
                               l1152 1914                                 l1144 1908  
                               l1208 17C4                                 l1216 18DC  
                               l2040 1176                                 l2032 1114  
                               l2024 10F4                                 l2016 10C2  
                               l2008 1088                                 l1138 1876  
                               l1170 192E                                 l1162 1922  
                               l1154 1916                                 l1146 190C  
                               l1218 18E2                                 l2042 1180  
                               l2034 1122                                 l2026 10FE  
                               l2018 10CE                                 l1180 160A  
                               l1172 1930                                 l1164 1926  
                               l1156 1918                                 l1148 1910  
                               l1500 1862                                 l2044 118C  
                               l2036 115A                                 l2028 1104  
                               l1430 18EA                                 l1190 1658  
                               l1182 1628                                 l1174 1932  
                               l1166 192A                                 l1158 191A  
                               l1510 186C                                 l1502 1864  
                               l2046 1192                                 l2038 1166  
                               l1432 1902                                 l1520 1944  
                               l1192 165E                                 l1184 1640  
                               l1176 1934                                 l1168 192C  
                               l1512 186E                                 l1504 1866  
                               l1522 1946                                 l1186 1642  
                               l1194 1666                                 l1178 1936  
                               l1514 1870                                 l1506 1868  
                               l1524 1948                                 l1516 193A  
                               l1188 1648                                 l1196 166A  
                               l1508 186A                                 l1526 194A  
                               l1518 1942                                 l1198 167C  
                               l1528 194C                                 l1800 171E  
                               l1730 176A                                 l1722 1746  
                               l1810 14A2                                 l1802 1722  
                               l1490 1858                                 l1482 1840  
                               l1900 1410                                 l1732 177E  
                               l1724 174A                                 l1812 14BC  
                               l1804 1476                                 l1820 1594  
                               l1492 185A                                 l1484 1852  
                               l1902 1414                                 l1910 11A8  
                               l1734 1784                                 l1726 175E  
                               l1750 16A6                                 l1742 1682  
                               l1814 14D2                                 l1806 148C  
                               l1830 15C4                                 l1822 159C  
                               l1494 185C                                 l1486 1854  
                               l1904 1470                                 l1920 1240  
                               l1912 11B8                                 l1736 178A  
                               l1728 1764                                 l1760 16E0  
                               l1752 16BA                                 l1744 1686  
                               l1816 14DC                                 l1808 1496  
                               l1832 15EA                                 l1824 15AC  
                               l1496 185E                                 l1488 1856  
                               l1930 128C                                 l1922 124C  
                               l1914 11BC                                 l1738 178E  
                               l1762 16E6                                 l1754 16C0  
                               l1746 169A                                 l1850 1814  
                               l1842 17E2                                 l1834 17CC  
                               l1818 14E8                                 l1826 15B0  
                               l1770 12DC                                 l1498 1860  
                               l1932 128E                                 l1924 124E  
                               l1916 120C                                 l1908 11A8  
                               l1756 16C6                                 l1748 16A0  
                               l1764 16EA                                 l1860 182A  
                               l1844 17EC                                 l1836 17DA  
                               l1828 15C0                                 l1780 12EA  
                               l1772 12DE                                 l1926 127A  
                               l1918 1210                                 l1758 16DA  
                               l1846 17F0                                 l1790 1312  
                               l1782 12F4                                 l1774 12E0  
                               l1928 128A                                 l1856 181C  
                               l1848 1806                                 l1784 12F6  
                               l1792 1316                                 l1776 12E2  
                               l1768 12C8                                 l1890 151A  
                               l1858 1826                                 l1794 132A  
                               l1786 12FC                                 l1778 12E8  
                               l1892 13AC                                 l1796 16EE  
                               l1788 130C                                 l1894 13AC  
                               l1886 1506                                 l1798 16F4  
                               l1896 13BC                                 l1888 1516  
                               l1992 1062                                 l1898 13C0  
                               l1994 1066                                 l1996 106A  
                               l1998 106E                                 STR_1 105A  
                               STR_2 105A                                 STR_3 1036  
                               STR_4 1001                                 u1000 157C  
                               u1001 1578                                 u1010 158E  
                               u1011 158A                                 u1100 1444  
                               u1020 13BC                                 u1101 1440  
                               u1021 13B8                                 u1110 145C  
                               u1030 13D0                                 u1111 1458  
                               u1031 13CC                                 u1120 146E  
                               u1040 13DE                                 u1200 122E  
                               u1121 146A                                 u1041 13DA  
                               u1201 122A                                 u1050 13F2  
                               u1210 1240                                 u1130 11B8  
                               u1051 13EE                                 u1211 123C  
                               u1131 11B4                                 u1060 1400  
                               u1220 1268                                 u1140 11CC  
                               u1061 13FC                                 u1221 1264  
                               u1141 11C8                                 u1070 1410  
                               u1230 127A                                 u1150 11DA  
                               u1071 140C                                 u1231 1276  
                               u1151 11D6                                 u1080 1424  
                               u1240 12A0                                 u1160 11EE  
                               u1320 1122                                 u1081 1420  
                               u1241 129C                                 u1161 11EA  
                               u1321 111E                                 u1090 1432  
                               u1250 12B2                                 u1170 11FC  
                               u1330 115A                                 u1091 142E  
                               u1251 12AE                                 u1171 11F8  
                               u1331 1156                                 u1260 12C4  
                               u1180 120C                                 u1340 1176  
                               u1261 12C0                                 u1181 1208  
                               u1341 1172                                 u1190 1220  
                               u1191 121C                                 _LATH 000F90  
                               _LATJ 000F91                                 _main 1062  
                               fsr2h 000FDA                                 indf2 000FDF  
                               fsr2l 000FD9                                 prodh 000FF4  
                               prodl 000FF3                                 start 0000  
             __end_of_SPI_Initialize 1950                         ___param_bank 000000  
                   ??_wait_status_ok 0002               EEP_SPI_WriteByte@F6839 000F  
              Read_bit_OneWire@value 0012                                ?_main 0001  
                              _PORTH 000F87                                _TRISH 000F99  
                              _TRISJ 000F9A                          _write_c_aff 1920  
                        _write_d_aff 1906                      write_d_aff@data 0001  
        I2C_Read_Registers@u8Address 0005                      __end_of_command 18EA  
                              tablat 000FF5                __end_of_delai_us_char 18A2  
                    _check_status_ok 1792                                status 000FD8  
                    ?_SPI_Initialize 0001          I2C_Write_Register@u8Address 0003  
                    __initialization 18A2                         __end_of_main 11A6  
                             ??_main 000F                        __activetblptr 000003  
                             _ANCON0 000F25                               _ANCON1 000F24  
                             _ANCON2 000F23                               _MEMCON 000F26  
        I2C_Read_Registers@pu8Values 0003                               clear_0 18BA  
                             isa$std 000001                            ??_command 0005  
                       __pdataCOMRAM 0017                         __mediumconst 0000  
                             tblptrh 000FF7                               tblptrl 000FF6  
                             tblptru 000FF8              __end_of_check_status_ok 17CC  
                         __accesstop 0060              __end_of__initialization 18C0  
         __end_of_I2C_Read_Registers 12C8                        ___rparam_used 000001  
                     __pcstackCOMRAM 0001                    __end_of_d1command 1792  
                  __end_of_d2command 16EE                   _EEP_SPI_Initialize 1950  
                  _I2C_Read_Register 13AA                   ?_I2C_Read_Register 0001  
          I2C_Write_Register@u8Value 0002                  ?_EEP_SPI_Initialize 0001  
                ??_I2C_Read_Register 0002         I2C_Write_Register@u8Register 0001  
               ??_EEP_SPI_Initialize 0001                       _clear_graphics 1806  
          __end_of_I2C_Read_Register 1474                           _clear_text 17CC  
                       ?_write_c_aff 0001                         ?_write_d_aff 0001  
           _initialisation_afficheur 12C8                              _SSP1ADD 000FC8  
                   ?_check_status_ok 0001                              _SSP1BUF 000FC9  
                            _SSP2BUF 000F6A                    wait_status_ok@err 0002  
                  wait_status_ok@res 0004                     ??_SPI_Initialize 0001  
             __end_of_clear_graphics 1840             _initialisation_des_ports 1840  
                            __Hparam 0000             I2C_Read_Register@u8Value 0002  
                            __Lparam 0000                    __end_of_draw_hex8 1504  
                       __psmallconst 1000    I2C_Read_Registers@u8FirstRegister 0001  
                            __pcinit 18A2                       _I2C_Initialize 18EA  
         __end_of_I2C_Write_Register 1592                              __ramtop 1000  
                            __ptext0 1062                              __ptext1 1840  
                            __ptext2 12C8                              __ptext3 18C6  
                            __ptext4 1792                              __ptext5 1592  
                            __ptext6 16EE                              __ptext7 1474  
                            __ptext8 17CC                              __ptext9 1806  
                            _command 18C6                   draw_string@tableau 0008  
                  __end_of_goto_lico 160A                       draw_hex8@octet 0008  
               end_of_initialization 18C0                      ?_clear_graphics 0001  
                     _u8EventCounter 0014                          ?_clear_text 0001  
                            postinc0 000FEE               __end_of_I2C_Initialize 1906  
                       goto_lico@adr 000D                            _PORTCbits 000F82  
                          _PORTDbits 000F83                            _TRISAbits 000F92  
                          _TRISCbits 000F94                            _TRISDbits 000F95  
                          _TRISFbits 000F97                            _TRISGbits 000F98  
                  clear_graphics@add 0009                           command@cmd 0005  
        I2C_Read_Register@u8Register 0001                           draw_hex8@c 0009  
                 check_status_ok@res 0001                        _u8DataFromI2C 0013  
                    ?_I2C_Initialize 0001                        __pidataCOMRAM 1952  
                 _I2C_Read_Registers 11A6                            _d1command 1744  
                          _d2command 1680                        ??_draw_string 000A  
                start_initialization 18A2                  ?_I2C_Read_Registers 0001  
                      _delai_us_char 1874                 ??_I2C_Read_Registers 0005  
         ??_initialisation_afficheur 0009                        clear_text@add 0009  
                         ?_d1command 0005                 delai_us_char@ucdelai 0001  
                         ?_d2command 0005                          __pbssCOMRAM 000F  
         ??_initialisation_des_ports 0001                  __end_of_draw_string 1744  
                     ?_delai_us_char 0001                            _draw_hex8 1474  
                           ?_command 0001                       _wait_status_ok 160A  
                        __smallconst 1000                     goto_lico@colonne 0009  
                        _PADCFG1bits 000F53                     ??_clear_graphics 0009  
                 _I2C_Write_Register 1504                   write_c_aff@command 0001  
                          _goto_lico 1592                             _LATAbits 000F89  
                           _LATCbits 000F8B                             _LATFbits 000F8E  
                           _LATGbits 000F8F                             _LATJbits 000F91  
                ?_I2C_Write_Register 0001                             _PIR1bits 000F9E  
                           _PIR2bits 000FA1                         ??_clear_text 0009  
            I2C_Read_Registers@u8Cpt 0006                             _SSP1CON1 000FC6  
                           _SSP1CON2 000FC5                             _SSP2CON1 000F67  
                           _SSP1STAT 000FC7                             _SSP2STAT 000F68  
         I2C_Read_Register@u8Address 0003               __end_of_wait_status_ok 1680  
                        ??_d1command 0006                          ??_d2command 0007  
                         ?_draw_hex8 0001                 ??_I2C_Write_Register 0003  
                        _draw_string 16EE                          _INTCON2bits 000FF1  
                    ??_delai_us_char 0001                   __end_of_clear_text 1806  
                         ?_goto_lico 0009                     ??_I2C_Initialize 0001  
                           __Hrparam 0000                             _u8Alarme 0017  
                           __Lrparam 0000     __end_of_initialisation_afficheur 13AA  
                    ?_wait_status_ok 0001  initialisation_afficheur@error_count 0009  
   __end_of_initialisation_des_ports 1874                             __ptext10 1680  
                           __ptext11 1744                             __ptext20 18EA  
                           __ptext12 1906                             __ptext21 1950  
                           __ptext13 1920                             __ptext14 160A  
                           __ptext15 1874                             __ptext16 193A  
                           __ptext17 1504                             __ptext18 11A6  
                           __ptext19 13AA                         _SSP1CON1bits 000FC6  
                       _SSP1CON2bits 000FC5                         _SSP2CON1bits 000F67  
                           isa$xinst 000000                    ??_check_status_ok 0001  
                        ??_draw_hex8 0008                        ??_write_c_aff 0001  
                      ??_write_d_aff 0001                          ??_goto_lico 000A  
                     goto_lico@ligne 000C                         d1command@cmd 0005  
                       d1command@res 0007                          d1command@d1 0006  
                __end_of_write_c_aff 193A                  __end_of_write_d_aff 1920  
                       d2command@cmd 0006            ?_initialisation_afficheur 0001  
                       d2command@res 0008           __end_of_EEP_SPI_Initialize 1952  
               wait_status_ok@status 0003                          d2command@d1 0007  
                        d2command@d2 0005  
